(dp0
S'replay_and_target_net'
p1
(lp2
(lp3
F-9.2097587923875
aF-9.772617129944845
aF-7.4388971796669665
aF-9.140446324462308
aF-4.903796468242712
aF-9.345075893839168
aF-6.9792547486237355
aF-9.979914217655953
aF-9.955832641187051
aF-8.841873538977966
aF-9.9951250145653
aF-9.999572765286706
aF-9.535144612302496
aF-9.99999911081029
aF-9.99994000734622
aF-8.590050258365181
aF-5.849110372111615
aF-6.948714695659822
aF-5.186834066519722
aF-9.11128653319434
aF-4.813587860529907
aF-4.525646822407946
aF-5.712322110830732
aF-4.635575229729171
aF-3.9468177988935356
aF-4.462055735681927
aF-6.082063223532357
aF-9.633204399024251
aF-2.827266613804135
aF-2.3421489479878734
aF-3.168177917229171
aF-4.010743087173813
aF-5.353079947287705
aF-3.8627413338677123
aF-7.692049375825116
aF-9.999507379162086
aF-9.958888220149415
aF-9.205161833650415
aF-6.982978756368333
aF-4.07707210853535
aF-5.045019993565865
aF-5.205321280610428
aF-2.0400767120476506
aF-8.54158732670496
aF-9.131233989106144
aF-4.179913082330576
aF-5.199325758149734
aF-4.155477894830576
aF-5.507830316745738
aF-5.951615541856626
aF-3.998472771367713
aF-4.903796468242712
aF-3.710672565473161
aF-6.480115482305795
aF-6.640709445692119
aF-7.101278960876831
aF-8.68299911113437
aF-5.547968466364355
aF-6.968240274737138
aF-3.6297766609075137
aF-4.261571922796801
aF-4.037681592265292
aF-1.8295994834585447
aF-7.778693163612836
aF-4.823227517999528
aF-7.9449430951898705
aF-5.308734853033657
aF-6.4173673127339566
aF-5.6766207322734985
aF-4.903796468242712
aF-4.089799752753055
aF-7.91881718135878
aF-6.632470070305494
aF-7.40171418012563
aF-5.322716210040113
aF-9.71323935245649
aF-4.194520095354171
aF-4.430729853506034
aF-4.474691333448864
aF-4.635812358350208
aF-2.6400736495466903
aF-4.0591532077563
aF-4.635575229729171
aF-4.049500601306927
aF-5.115450250267297
aF-5.8945799472877045
aF-4.981673934932798
aF-3.77551771769792
aF-5.092671062621345
aF-5.764049866036717
aF-4.262213312766119
aF-4.405901737603602
aF-4.281881234928345
aF-2.597291762594275
aF-4.864733922568458
aF-6.441131005289195
aF-5.01637694770677
aF-4.430729853506034
aF-3.208768397017563
aF-5.488550923858151
aF-2.4178139562114622
aF-5.067343873921036
aF-5.430311384787705
aF-6.346523904966389
aF-3.477240537933607
aF-5.289362441593719
aF-9.499175097899652
aF-7.953154946689584
aF-6.6875782774162165
aF-4.043738956211461
aF-4.989052860080364
aF-3.839212846480735
aF-4.617106644830575
aF-4.624474407980844
aF-5.013821456892696
aF-4.981673934932798
aF-3.1268003602792542
aF-5.189587362584595
aF-2.3085267542057633
aF-3.8326240538156098
aF-4.415092718242711
aF-4.873422839098509
aF-5.095601736562872
aF-6.208704315042066
aF-4.054873934459595
aF-3.4016685411312992
aF-5.373196637365425
aF-8.468142170169068
aF-3.7644168959495943
aF-6.69435801557689
aF-3.6519796588649203
aF-4.838739423711565
aF-3.6456866974380246
aF-2.9787545718941932
aF-5.740489479491862
aF-6.258157179128678
aF-4.551970632215927
aF-3.943294090586462
aF-5.271400333416567
aF-4.421214835452784
aF-4.55736606001931
aF-4.104950326101937
aF-3.647406702171021
aF-5.630642496959595
aF-3.261032726154908
aF-4.673668684965095
aF-4.525646822407946
aF-5.748649603538332
aF-5.2480535483307325
aF-5.630642496959595
aF-4.276333066186143
aF-4.460665907742248
aF-3.3474685214254434
aF-5.866042751560107
aF-4.858368684491892
aF-6.895672313025322
aF-4.455082925236615
aF-4.814262084046445
aF-3.9551848251520045
aF-3.2501541979555766
aF-6.579334759920961
aF-3.5474915941795766
aF-5.9047357350428875
aF-3.3112491551979204
aF-5.278530646546446
aF-5.630642496959595
aF-6.253822110830733
aF-4.435438214695142
aF-2.8689627187158884
aF-5.715374798140158
aF-5.430107994455365
aF-5.438002255289195
aF-5.141938746959594
aF-3.1783994068716925
aF-3.6358715568033455
aF-5.630642496959595
aF-5.271400333416567
aF-2.913455675921673
aF-5.597765173244092
aF-3.230052008400889
aF-4.903796468242712
aF-4.432055735681927
aF-1.8865681229937714
aF-5.765118360830732
aF-4.275335704674326
aF-3.49491792615936
aF-4.484794090586462
aF-4.14687147972917
aF-3.887482125081803
aF-4.588606644830576
aF-5.151677142524734
aF-4.0339673126213444
aF-6.319970223407513
aF-4.793185372111615
aF-3.8777040000890475
aF-3.0832829479555763
aF-4.216572852072921
aF-4.205472030324595
aF-3.4449030453795046
aF-5.215225329276421
aF-4.030438746959595
aF-3.4741816448305762
aF-3.390723428689967
aF-3.2994440436045163
aF-5.767592016456207
aF-3.836712299735096
aF-2.884590340586462
aF-1.3663771879627897
aF-4.768321675686158
aF-4.180456998995811
aF-3.168177917229171
aF-3.7245319989958103
aF-5.3515237179399735
aF-5.976862442789194
aF-2.208608333925443
aF-3.9508241557427124
aF-4.170716587928461
aF-4.734887842129749
aF-5.448273492964857
aF-4.13611045217102
aF-5.630642496959595
aF-4.104282238180997
aF-4.627897110830732
aF-3.3071356819553643
aF-5.092671062621345
aF-5.538357303856574
aF-4.8250938790937195
aF-3.3712499546578862
aF-5.036565071847528
aF-2.861384792292576
aF-4.115641139028434
aF-6.02282353114199
aF-4.053936364750853
aF-3.2059229145134065
aF-4.043738956211461
aF-5.701798691149882
aF-2.9404150505577977
aF-4.903796468242712
aF-5.849110372111615
aF-4.635575229729171
aF-3.522518072407947
aF-3.6449586125845954
aF-5.765118360830732
aF-5.197897110830732
aF-3.6568816672291704
aF-6.130370705024734
aF-2.770799811230555
aF-5.048488230058063
aF-4.303796468242712
aF-4.249747464995966
aF-3.8927413338677126
aF-4.843341809611615
aF-3.168177917229171
aF-5.158606644830576
aF-2.9971432030350136
aF-4.103499170324685
aF-5.630642496959595
aF-3.330667718242712
aF-4.800676312589048
aF-3.3575870510284096
aF-2.8093887798311243
aF-2.555765264179347
aF-4.806746106245072
aF-1.894236036007416
aF-3.599784135302271
aF-4.989052860080364
aF-4.859176312589047
aF-3.6982005922230323
aF-3.7302583553832624
aF-4.307763948151555
aF-4.984195655087713
aF-5.875672464995967
aF-5.046283905105985
aF-2.5932024232452116
aF-4.328723690234466
aF-2.808608333925443
aF-5.903461501297113
aF-4.065575229729171
aF-3.556903364985502
aF-6.523912087282976
aF-4.085943935620873
aF-4.353237083925443
aF-3.5097690213677124
aF-3.8790581967362274
aF-3.9355060161201054
aF-3.367891479092717
aF-4.003054304699685
aF-5.322637246991892
aF-3.2013207478766965
aF-4.777097987313626
aF-3.15803280166099
aF-4.236615050084596
aF-4.247326589464701
aF-5.731692542084891
aF-5.712322110830732
aF-2.9953440213677123
aF-3.219371468242712
aF-3.523868162509272
aF-3.7182946639557315
aF-3.621745184459595
aF-6.655969881661372
aF-1.3458212816808157
aF-3.918515519577012
aF-2.6696688458511657
aF-4.127594563634508
aF-4.065575229729171
aF-4.6132055353871015
aF-3.830026611863295
aF-2.692714384938025
aF-4.959621178214047
aF-4.225817666786579
aF-3.4089033822912125
aF-3.970974068519559
aF-4.015551502149203
aF-3.297312083925443
aF-4.195559632824704
aF-3.791204292755431
aF-3.440850182370739
aF-4.624474407980844
aF-4.17130666722917
aF-3.9713029865327467
aF-4.380354834649294
aF-3.8645333339254426
aF-2.4448346567562993
aF-4.644181644830575
aF-3.691209332330576
aF-2.2511449785558146
aF-6.484446133159821
aF-4.544554304699684
aF-4.48065553605216
aF-5.630642496959595
aF-6.789282318370082
aF-3.0498611282770054
aF-3.8132415610902273
aF-4.760554386057138
aF-3.2972649542730244
aF-5.399441407594653
aF-5.678460194040109
aF-4.2290849849283445
aF-3.2353795554462415
aF-5.875672464995967
aF-3.4746986125661232
aF-4.096179384268999
aF-3.9508241557427124
aF-3.7557187274893256
aF-1.0862300006207564
aF-3.007922228191124
aF-3.873888214576744
aF-7.514709049081772
aF-4.5696611341068
aF-4.947184280818986
aF-7.026005299081771
aF-2.4759596582582692
aF-2.8262098198980246
aF-3.914794090586462
aF-5.686309630229397
aF-2.849809706269193
aF-4.327480636397831
aF-3.481665340586462
aF-3.427072344725606
aF-5.252492851124829
aF-4.389371468242711
aF-4.077814195911402
aF-4.897885352206771
aF-4.888607994455365
aF-5.630642496959595
aF-4.143514035220585
aF-4.127594563634508
aF-4.289176312589048
aF-2.3586958729864835
aF-4.959621178214047
aF-3.6566452423446796
aF-5.042080384642296
aF-4.092627406631034
aF-2.9123287365632593
aF-5.038874891921829
aF-5.583251037301586
aF-3.247871468242712
aF-4.2287041024915535
aF-3.360844973608908
aF-3.244323623478259
aF-4.328916809611615
aF-5.515154853506034
aF-4.076196051152115
aF-4.023162576679346
aF-3.191391345354171
aF-4.21556200537472
aF-3.8098453827993257
aF-3.691209332330576
aF-3.4149924282140476
aF-4.199015940711255
aF-3.5844688795669217
aF-3.477785891625421
aF-3.194167185978259
aF-5.052484543433605
aF-1.7666204051979213
aF-6.450085247128255
aF-3.953852615714048
aF-3.762296468242712
aF-5.525127392177921
aF-3.3766361777223737
aF-3.163105064648096
aF-3.621745184459595
aF-4.717594396100884
aF-2.71697766728599
aF-4.293020000299594
aF-6.056654853506035
aF-2.6261471190986856
aF-4.036943072407947
aF-2.484700899037339
aF-3.427072344725606
aF-4.945643622734881
aF-2.437254571894193
aF-3.705816345354171
aF-3.967902886524204
aF-4.373786675236615
aF-3.193472741460385
aF-4.577165586546021
aF-4.854440592351391
aF-3.2762298667815672
aF-4.070970969131035
aF-4.181528156871693
aF-4.061153273323554
aF-4.959887863655512
aF-6.1485260178198775
aF-2.9729571105377057
aF-6.056654853506035
aF-4.474248309925552
aF-4.635575229729171
aF-4.799364481287548
aF-4.903796468242712
aF-6.346523904966389
aF-6.276501891215756
aF-4.413939347253241
aF-3.1417829479555768
aF-3.446758104254282
aF-3.3864295521208114
aF-3.9739805919018494
aF-3.2791358487994815
aF-2.096993134938025
aF-6.133125755321492
aF-5.634643820548701
aF-3.2560475625890475
aF-3.297950552458809
aF-2.697312083925443
aF-3.8402675917254028
aF-3.818726788839224
aF-4.049025308823121
aF-4.155477894830576
aF-4.562516412876835
aF-4.33940186462081
aF-5.1943340322325975
aF-1.9100681464244842
aF-3.9569356634263126
aF-3.7348330661861433
aF-3.7221900500845955
aF-2.8153800875914823
aF-3.7278691020729204
aF-3.8009636819378176
aF-3.468463511550956
aF-2.6533120470442655
aF-3.812120049961055
aF-4.117637058420555
aF-6.788120732273498
aF-5.903461501297113
aF-4.353237083925443
aF-4.585912689963007
aF-6.403982901579609
aF-3.1895942292843604
aF-3.4999756469692747
aF-4.886684559481715
aF-3.4840477713677123
aF-3.174460652227439
aF-4.303796468242712
aF-6.9027797315045545
aF-3.0951191003768366
aF-4.397547562589048
aF-4.823612509490276
aF-2.398771896424484
aF-5.296372420483908
aF-4.635575229729171
aF-5.658602594732597
aF-5.471961811908593
aF-2.558870420324685
aF-4.079934780086908
aF-2.6761167227205864
aF-1.3234669412429638
aF-2.577391497934428
aF-5.170521384288801
aF-3.111716762594275
aF0.3945985324032255
aF-4.8737689469902765
aF-3.5796502297291704
aF-5.630642496959595
aF-5.630642496959595
aF-4.770438507367946
aF-5.923976424153336
aF-6.1041262527021685
aF-1.6130077324422407
aF-3.9004968740258885
aF-4.621074307972301
aF-6.932242669673321
aF-5.451058113338177
aF-4.891924106636746
aF-5.871131005289195
aF-3.405087438090678
aF-3.4862675072231717
aF-3.7485823929721622
aF-2.6473344624542667
aF-4.883026102712405
aF-4.086741831813024
aF-2.297019583449595
aF-4.353237083925443
aF-2.5999674735074163
aF-4.043044511693588
aF-4.061378259907947
aF-2.573475560111047
aF-6.813904262191339
aF-5.139397110830732
aF-5.173874798140159
aF-3.3860718740258893
aF-3.277871468242712
aF-3.167092185978259
aF-4.694338082330575
aF-4.717551510455576
aF-4.58362167615936
aF-4.358239603693064
aF-3.8698428213853173
aF-3.15803280166099
aF-4.0646890750942735
aF-4.34716915424983
aF-4.074298184397516
aF-4.696910046465425
aF-3.8185205932994823
aF-4.603524289098032
aF-2.5763416437114626
aF-5.400676312589048
aF-4.787622839090006
aF-3.67829797928436
aF-3.71710807451477
aF-3.513950633816263
aF-6.534607647707421
aF-2.942547771367712
aF-2.7423330264471493
aF-5.197373908508165
aF-3.8388120839254425
aF-5.400676312589048
aF-1.600655000620756
aF-8.076929238038227
aF-3.028911009394193
aF-4.981673934932798
aF-2.3477280494753385
aF-6.130370705024734
aF-4.310660731287549
aF-4.624474407980844
aF-2.2683524812788676
aF-4.413939347253241
aF-5.451058113338177
aF-4.4999341490460205
aF-7.101278960876831
aF-5.849110372111615
aF-4.903796468242712
aF-3.2282048822589156
aF-3.9556468224079473
aF-5.158606644830576
aF-3.607232565634045
aF-2.8680271890719413
aF-5.356632519669487
aF-4.39832421180845
aF-3.1814181349380246
aF-3.7564766538059917
aF-2.328870947464718
aF-3.817843946990277
aF-5.608199624310039
aF-1.2495803547859907
aF-4.525646822407946
aF-3.943294090586462
aF-5.111509944468763
aF-4.113209585485081
aF-2.9993158130897175
aF-3.5302478521577467
aF-4.505744209469274
aF-3.6456866974380246
aF-3.3455768202993266
aF-6.294858402427153
aF-4.277880285483991
aF-4.766566495768536
aF-2.9696448088136567
aF-1.9100681464244842
aF-7.383904262191339
aF-3.940657925236615
aF-3.5922194447516973
aF-4.926890183042576
aF-4.903796468242712
aF-3.572316831813025
aF-4.322721164830732
aF-3.705816345354171
aF-4.163245184459595
aF-4.6132055353871015
aF-1.8864037365632589
aF-1.8672421974647182
aF-2.383468215254858
aF-3.0094703937114624
aF-4.22075520462559
aF-4.965146388996137
aF-5.176225350680992
aF-3.443048236566656
aF-4.071808283878871
aF-3.5129744079808445
aF-4.16539749763305
aF-4.687707090058341
aF-4.687707090058341
aF-4.174580753211255
aF-3.0749954987890176
aF-5.02961973106748
aF-3.6821138223022807
aF-5.557860065132944
aF-4.132726170257222
aF-4.911612624488743
aF-3.6456866974380246
aF-3.8889685214254426
aF-4.194520095354171
aF-2.0498913453541707
aF-2.718968521425443
aF-3.5326816448305762
aF-4.146918998449735
aF-5.356132634597132
aF-5.849110372111615
aF-4.669902894830575
aF-4.389371468242711
aF-3.1746222511345095
aF-5.536942257197279
aF-3.517127863370474
aF-2.3443397714254433
aF-3.0218945381374263
aF-3.875196178214048
aF-2.3443397714254433
aF-3.6392306078246848
aF-4.793185372111615
aF-4.768309167010133
aF-5.630642496959595
aF-4.628402500121345
aF-4.011471532379282
aF-4.401558361030154
aF-3.6392306078246848
aF-5.385206005289195
aF-1.7877272909990434
aF-3.2586985312086694
aF-4.049651741315611
aF-2.7338626130935415
aF-4.257425583894405
aF-5.027103923048156
aF-4.643206105058497
aF-4.948852190692659
aF-5.216186537683483
aF-5.630642496959595
aF-3.3168137368944035
aF-2.830264771425443
aF-2.738940807684677
aF-6.414302419320965
aF-4.353237083925443
aF-5.158606644830576
aF-6.253822110830733
aF-5.158606644830576
aF-3.4583705088853174
aF-2.8692734288083646
aF-4.353237083925443
aF-4.447223882787493
aF-3.4994032142455995
aF-4.959621178214047
aF-6.216218215985879
aF-4.427174954657888
aF-4.579580415645131
aF-3.8098453827993257
aF-4.484794090586462
aF-3.1606478520729206
aF-4.0646890750942735
aF-0.061176337046691065
aF-5.007218358589856
aF-5.912542055464856
aF-3.3112491551979204
aF-5.05230001562626
aF-2.77237721198992
aF-4.694338082330575
aF-3.7006239976221886
aF-4.490657058828795
aF-4.447704000089048
aF-5.489868208568587
aF-5.567951103506034
aF-4.25581692416956
aF-3.12534952448992
aF-4.154739074519426
aF-2.458666688032947
aF-2.307765341635696
aF-5.80295358822612
aF-5.322637246991892
aF-3.3465813224992234
aF-4.959621178214047
aF-4.096478214245599
aF-4.689135591124947
aF-3.7213625850988405
aF-4.017040459469275
aF-5.245926723024741
aF-4.22480038496348
aF-3.591929475930947
aF-3.490032167148236
aF-5.926706005289194
aF-4.194520095354171
aF-3.3942442094692744
aF-4.903796468242712
aF-5.158606644830576
aF-4.737610372111615
aF-2.8715029237966885
aF-3.9855091490460204
aF-3.0888562396311605
aF-4.694618803847907
aF-1.7597679918150424
aF-3.3421819495504432
aF-4.275001996976383
aF-4.079574307972301
aF-3.873589209001799
aF-3.1957930426684347
aF-4.176611163747067
aF-2.7527700953852796
aF-3.410699943188656
aF-4.04894702093157
aF-3.285984686495811
aF-5.215225329276421
aF-1.379041941242964
aF-3.691209332330576
aF-3.7001955916033986
aF-3.4922238657140476
aF-5.280452948897831
aF-8.908345932306295
aF-2.9174184758427937
aF-3.2845506584557334
aF-4.6751623625845955
aF-3.1149604786148597
aF-3.193472741460385
aF-3.847871468242712
aF-4.5294760314723
aF-3.5204506489285134
aF-4.903796468242712
aF-5.630642496959595
aF-4.718752671984507
aF-5.987823434355471
aF-4.808055237736615
aF-6.056654853506035
aF-2.7230835879374315
aF-3.5718110873798317
aF-3.648744618378055
aF-5.158606644830576
aF-3.8830994572504567
aF-3.8542872020637318
aF-3.9062040000890477
aF-4.52309614192183
aF-4.3741829944553645
aF-3.3122599319378176
aF-5.551509640293945
aF-3.799753002825943
aF-4.415092718242711
aF-5.060642496959595
aF-4.538355491315611
aF-5.291383666533453
aF-4.099512230933607
aF-4.026193800557798
aF-4.780456998995811
aF-5.3070596328247035
aF-6.8631699445873995
aF-3.4403709474647175
aF-3.6601557532112556
aF-4.0298106965373375
aF-6.208916084596432
aF-4.7684550100237635
aF-2.7557877625164005
aF-3.551784503211255
aF-4.795986770203366
aF-4.886533385297859
aF-3.320003309177559
aF-3.336420853499044
aF-2.511000940777006
aF-6.5207401950014905
aF-2.15603705160326
aF-4.279308236500451
aF-3.0811287839216903
aF-2.544495512594275
aF-3.134629386057139
aF-2.428475922361137
aF-3.617246250233822
aF-4.263353771426723
aF-3.5326816448305762
aF-3.510064517701744
aF-2.4447846370504434
aF-3.3470252414486934
aF-3.7501501478575965
aF-3.319855570299327
aF-4.510458348620599
aF-3.9627106819553646
aF-5.030939102256909
aF-3.3001483334495947
aF-2.3159270657413336
aF-5.592386291006034
aF-5.290644778901115
aF-4.076196051152115
aF-5.089142496959594
aF-2.7889968740258895
aF-3.521655547580365
aF-4.533749580879592
aF-3.561925238057798
aF-3.541425554699685
aF-3.943294090586462
aF-3.0011056664631774
aF-3.3665269391821395
aF-4.739604267174326
aF-5.577403720251634
aF-4.210242963556617
aF-3.7458467134218596
aF-5.645573097093574
aF-5.122102744487662
aF-5.047103558414195
aF-2.5453816672291705
aF-5.384841809611614
aF-4.893630237736615
aF-4.372532726154907
aF-4.855983165733394
aF-4.361184014180454
aF-5.701824536626169
aF-1.7640053547859909
aF-3.7806189013372045
aF-4.113973844732597
aF-4.441315038385281
aF-3.6456866974380246
aF-3.9332790000890476
aF-6.363887151499039
aF-3.4471066448305763
aF-4.960327601518871
aF-4.591000601306927
aF-4.216572852072921
aF-2.905135413654908
aF-4.555251598311433
aF-3.56920783297273
aF-5.0764602599914666
aF-5.842872550416531
aF-1.5327462701943566
aF-2.460249289495383
aF-2.944843008433186
aF-3.1596370053747194
aF-4.403733692789194
aF-3.9302951103115524
aF-2.0918195061600136
aF-2.6266779172291708
aF-3.3591677182427118
aF-3.021581992199685
aF-3.691209332330576
aF-2.7528542769647006
aF-4.22502574821261
aF-2.032733849077941
aF-3.7846380596116145
aF-6.259273793046139
aF-2.598812190711255
aF-2.2858397714254433
aF-1.0760450749423738
aF-1.524250895711908
aF-3.8627592808189855
aF-2.858869090586462
aF-5.918339099801881
aF-1.2477096370504435
aF-4.0029803724327975
aF-4.030929866308365
aF-4.622115028082989
aF-3.994211968318986
aF-1.8297671311720984
aF-4.043738956211461
aF-4.051901883530402
aF-2.649891345354171
aF-3.6928213232962688
aF-3.2365730582934846
aF-6.133125755321492
aF-3.5613135721389
aF-2.361821778086462
aF-3.8462298667815675
aF-2.3248991557427123
aF-2.418674509363156
aF-3.5669841082890317
aF-4.208511369303345
aF-3.241547782854171
aF-3.769160731287549
aF-4.922021760647622
aF-5.607439595084565
aF-4.209603420229237
aF-4.311972562589047
aF-2.923179571894193
aF-3.8751226925943394
aF-4.612156739018712
aF-3.0911526752689116
aF-4.1145215112362665
aF-3.818350489186778
aF-2.951679571894193
aF-4.855983165733394
aF-4.204920701648157
aF-5.687854211891699
aF-3.769616780648252
aF-6.065447576918823
aF-4.0646890750942735
aF-2.819615616690159
aF-5.703739195911403
aF-4.960370705024734
aF-2.813602905742712
aF-4.494346173793553
aF-4.411673934932797
aF-3.1914015894647005
aF-2.566548269313025
aF-2.461140248449734
aF-3.40172052852853
aF-6.056654853506035
aF-5.256357555588008
aF-1.494480206684639
aF-4.505744209469274
aF-3.9045578145179625
aF-3.64839254820363
aF-4.005304930757944
aF-5.2642826523745265
aF-3.2340177176979203
aF-5.4080552377366145
aF-4.859176312589047
aF-3.963402362566123
aF-3.8508241715558134
aF-5.533546527136999
aF-3.219888435978259
aF-3.4604131454763927
aF-5.899631005289194
aF-3.1949755171743264
aF-4.09407522972917
aF-4.39074818550145
aF-2.8771046952791144
aF-6.7271138156966375
aF-5.607676421987474
aF-3.9551848251520045
aF-2.6540639660018366
aF-3.8274846864958114
aF-4.495352615714048
aF-3.6832829479555764
aF-2.9993158130897175
aF-3.5246570482654236
aF-6.087598513364595
aF-5.158606644830576
aF-4.828062272400851
aF-3.787956288877201
aF-2.127312083925443
aF-2.4865380818130247
aF-3.9716605369855165
aF-2.219833694893742
aF-1.5437543411138805
aF-5.032055735681927
aF-5.249110372111615
aF-4.265232244437818
aF-4.484794090586462
aF-3.23699972228021
aF-6.403097664521077
aF-2.4110180724079466
aF-3.0681996149855024
aF-4.354638059611615
aF-2.3186293046996846
aF-2.7484551436572207
aF-2.895148865714048
aF-1.3617214880577977
aF-2.961821778086462
aF-2.829849605847374
aF-4.775331654576346
aF-4.411673934932797
aF-5.953465005517268
aF-2.5089746233141295
aF-4.439527905742711
aF-2.753033333925443
aF-5.06482629824479
aF-4.679110372111614
aF-3.7350701826919215
aF-3.963402362566123
aF-5.06677518237074
aF-4.298549132799326
aF-3.9004968740258885
aF-2.8483671251291027
aF-7.717844375946152
aF-2.7631191516829006
aF-5.702033952386954
aF-4.865362442789195
aF-2.266399155742712
aF-4.244062005374719
aF-2.5144860093941936
aF-3.514129690777005
aF-4.835224101194919
aF-3.469966143769193
aF-3.006658343146623
aF-4.875609014180455
aF-4.833490473468579
aF-4.439527905742711
aF-2.727122782854171
aF-3.0474786974957553
aF-6.43241136648904
aF-3.7404730224966927
aF-4.237522970955733
aF-1.9729736349647184
aF-4.733011488272034
aF-3.05358556056059
aF-3.0909464797291704
aF-4.859176312589047
aF-3.9908766814582313
aF-4.236471467076346
aF-5.683822110830732
aF-4.670140119303345
aF-4.774937441593719
aF-2.7662640865807333
aF-2.6308587506207557
aF-2.7260370516032593
aF-5.578224769823717
aF-3.6456866974380246
aF-3.6826029172291705
aF-5.384841809611614
aF-4.859794663955732
aF-3.241737083925443
aF-1.7725477713677122
aF-2.9784854693402334
aF-3.3001483334495947
aF-2.2669049555556584
aF-4.996757454124401
aF-3.4149924282140476
aF-2.713379654179672
aF-2.5611573782770063
aF-6.083060131723457
aF-3.318968521425443
aF-6.39006847350006
aF-4.17130666722917
aF-3.3875625737297397
aF-2.636101857824685
aF-2.9540496282459676
aF-2.535047250589718
aF-5.988862294679773
aF-4.455082925236615
aF-5.145895434664429
aF-2.263043521425443
aF-3.344948325120968
aF-2.02389653127013
aF-4.14256654178436
aF-3.667011369303345
aF-4.204327671984508
aF-3.4363991557427123
aF-5.812766976455732
aF-3.5374900505577975
aF-4.030422007014033
aF-4.289176312589048
aF-2.929504280383121
aF-2.221817827672651
aF-4.3824047402223725
aF-4.113973844732597
aF-3.686143244982783
aF-5.983780519863779
aF-3.5546533701100747
aF-3.6500391541033994
aF-4.713666303960385
aF-3.4598911113505157
aF-4.996344925669308
aF-3.284945998920821
aF-2.822545405197921
aF-4.82064569221461
aF-6.381528774204908
aF-3.431974353089857
aF-3.090082267591547
aF-4.686432143676237
aF-3.746604385016518
aF-3.59388524740345
aF-2.913196896424483
aF-3.1489675214000092
aF-5.698887704693343
aF-5.456044616069014
aF-2.1427968338944052
aF-3.689098959305145
aF-5.570863693290294
aF-5.7979030052283935
aF-2.913196896424483
aF-3.3864295521208114
aF-3.985924110080365
aF-5.083153495574874
aF-3.7746884364958113
aF-2.0440452911410896
aF-2.2676768870194057
aF-3.621745184459595
aF-2.8858397714254433
aF-4.739604267174326
aF-1.946287512652006
aF-4.150688278434374
aF-5.807245962454001
aF-4.348511839920112
aF-3.0510145444333654
aF-1.9836273131207562
aF-4.024456786985517
aF-2.21914211675951
aF-3.4118838709382584
aF-2.96650677138977
aF-4.242932588834986
aF-3.3421819495504432
aF-2.389209637050443
aF-2.8630404589244836
aF-5.594336183518249
aF-5.384841809611614
aF-0.9352323782770062
aF-5.382427255289194
aF-2.9276193228754575
aF-3.1837755922230326
aF-5.842872550416531
aF-3.6456866974380246
aF-4.445196178214048
aF-4.455082925236615
aF-3.5726745099079475
aF-4.919275929675916
aF-2.7491755395729207
aF-4.635575229729171
aF-3.0439778948305762
aF-3.330496874025889
aF-3.9082641636549074
aF-4.1931893198352155
aF-3.9634368243735043
aF-2.8924357457001384
aF-1.3458212816808157
aF-6.3682022538932275
aF-2.369241522306775
aF-5.280320752899572
aF-2.7662207402899917
aF-2.9592096370504435
aF-2.068785134995756
aF-2.5340733343659663
aF-3.296923206238155
aF-3.7106349951919215
aF-4.10173266257943
aF-3.5845051815938365
aF-3.0899307698103646
aF-3.2307029045763462
aF-1.9100681464244842
aF-2.6314965670669217
aF-3.5160137469595947
aF-4.589257541006034
aF-2.4447846370504434
aF-2.558028573421534
aF-4.921210785354805
aF-2.5275385460230173
aF-4.362134869335642
aF-4.643381890272583
aF-5.667842122767178
aF-5.630642496959595
aF-4.389371468242711
aF-4.333796468242712
aF-3.2541771100628174
aF-5.592386291006034
aF-5.173288519437507
aF-4.780456998995811
aF-2.895661215458076
aF-3.450525528086462
aF-3.194167185978259
aF-3.912181949550442
aF-7.472539852754583
aF-2.333472221394998
aF-2.1722798822589153
aF-4.860180331323976
aF-3.9133069183581513
aF-1.9251305495719664
aF-2.3511232807994835
aF-3.9827335582934538
aF-4.388372539557295
aF-5.039573493257944
aF-5.195118360830731
aF-4.164685372111615
aF-4.359496036299483
aF-5.367257645646942
aF-4.299324954949247
aF-4.440662974102747
aF-4.90999344313988
aF-3.7085921859782593
aF-3.8185205932994823
aF-4.4775476590642596
aF-3.5108188755906777
aF-3.7485823929721622
aF-4.079934780086908
aF-5.7939310204584125
aF-1.7892096370504431
aF-1.5607069546743264
aF-3.339972235672455
aF-3.80757944784538
aF-3.1158106134539705
aF-3.86297712624308
aF-3.69420720782883
aF-4.010879866189967
aF-3.467423124366581
aF-2.0257822593941937
aF-4.484794090586462
aF-3.0243556265894886
aF-3.484291218275009
aF-4.462433257400243
aF-5.211640119303345
aF-4.337127945852152
aF-1.925337393769193
aF-3.1497093323305765
aF-3.1367979792843603
aF-3.7523042895729204
aF-3.3862196129041213
aF-4.133347804714489
aF-3.3455768202993266
aF-2.8176433968336694
aF-3.080204303613245
aF-3.137897741460385
aF-4.469573493257945
aF-7.306010275118181
aF-3.9875425273021037
aF-4.421214835452784
aF-2.8555628415255248
aF-5.630642496959595
aF-4.107382964609042
aF-3.5361824474957553
aF-3.6060515104555764
aF-3.4818827582498364
aF-2.457815813089718
aF-3.991319209469275
aF-4.226156648453925
aF-3.491455951077784
aF-4.255566102057294
aF-2.4207505302647236
aF-5.556505384642297
aF-4.085097341474785
aF-3.7315610282107903
aF-4.203274249333809
aF-5.391217123361415
aF-4.489371807932325
aF-4.981673934932798
aF-3.359908547562817
aF-3.800052008400888
aF-4.474627860080365
aF-2.0911830745147704
aF-2.589761697438025
aF-5.653211873393712
aF-3.8388120839254425
aF-3.1949755171743264
aF-4.265232244437818
aF-3.0200209571474925
aF-4.237522970955733
aF-3.8052219905603715
aF-2.69376423916099
aF-4.355889585130259
aF-2.804037583867712
aF-6.081888841746167
aF-4.394907750089048
aF-3.1180949557193385
aF-3.420258251598171
aF-3.198721833894405
aF-4.739604267174326
aF-3.115456449023096
aF-2.144197029732994
aF-4.2108938000845955
aF-4.484794090586462
aF-3.603654240295262
aF-1.8162272909990436
aF-4.3213473512651595
aF-5.00262405381561
aF-5.630642496959595
aF-3.4590056774236424
aF-1.6277300006207565
aF-2.6745427967918713
aF-4.572296509347529
aF-5.748649603538332
aF-4.861450571241581
aF-3.743583404179672
aF-3.11276661681724
aF-2.6436078016609903
aF-3.038346896969275
aF-4.356572049175546
aF-4.981673934932798
aF-4.690979070648391
aF-2.7539203827993264
aF-3.8009636819378176
aF-2.1746292211315668
aF-3.093326001134509
aF-2.822545405197921
aF-5.936460796142743
aF-5.360724262673401
aF-4.385803013748711
aF-4.289586640135123
aF-1.9511101793172405
aF-3.0332742493338087
aF-4.638653442821491
aF-3.946734464695142
aF-5.221265974390446
aF-2.731642310380469
aF-3.3521018870194053
aF-2.279357321792998
aF-2.2674357536861436
aF-4.227859066061836
aF-5.3053006425570315
aF-6.614615162414496
aF-3.2767046461731466
aF-4.669902894830575
aF-5.059396257223171
aF-3.1683524000914822
aF-5.158606644830576
aF-3.6351409167771145
aF-2.4116608842362273
aF-3.6346159831744815
aF-4.599887256621139
aF-3.2309636819378174
aF-4.408275152495968
aF-3.2575045301192054
aF-4.244725149078317
aF-4.484286046691418
aF-4.551970632215927
aF-5.592386291006034
aF-2.5402072593941933
aF-4.770584984928345
aF-2.2527091047859904
aF-4.2124478316579665
aF-4.867428884597131
aF-3.4038592450150795
aF-3.0580786656911236
aF-4.663284503211256
aF-4.677670184459595
aF-2.5059786974957556
aF-2.3168745591775592
aF-1.1304710104921363
aF-4.770584984928345
aF-4.0224708960685875
aF-5.377582638552299
aF-2.452202419906568
aF-2.952114242664032
aF-2.753850571460604
aF-3.1416943526149685
aF-3.3362731146208113
aF-4.677670184459595
aF-3.1855529687701303
aF-4.653906089847162
aF-4.0646890750942735
aF-3.4714756469692745
aF-3.456130924464561
aF-4.245986607187956
aF-4.194520095354171
aF-5.630642496959595
aF-3.5839555418873656
aF-3.536003390535013
aF-5.829457816383859
aF-6.113638369507778
aF-4.484794090586462
aF-3.8120645036861434
aF-4.725318800084596
aF-4.421982750089048
aF-3.5977557265980327
aF-4.3044481640705206
aF-2.475896778086462
aF-3.5567320388069277
aF-1.8071679066817752
aF-4.2576317794341465
aF-3.0410226078824163
aF-3.1042509009033172
aF-2.383604295515272
aF-5.181095176935777
aF-2.639918134938025
aF-5.400676312589048
aF-2.855903577895903
aF-4.0877020697159265
aF-1.8667421009263123
aF-2.473791358571145
aF-4.732328778974783
aF-5.2743196637651595
aF-4.253282947955577
aF-2.822545405197921
aF-4.581471532379282
aF-2.398771896424484
aF-3.9938158634216734
aF-3.671554345804502
aF-2.8850814599352317
aF-4.233121033873445
aF-1.4842822593941936
aF-5.121400212624816
aF-5.0007298535060345
aF-5.458575870914196
aF-2.9592096370504435
aF-3.95457512256588
aF-2.15168072548888
aF-3.0271873885777842
aF-3.591998944723172
aF-3.3951047626209676
aF-5.252492851124829
aF-3.985986485945282
aF-2.0257822593941937
aF-3.2350007660624307
aF-3.3591677182427118
aF-3.368674457250457
aF-4.9156829944553655
aF-3.3821233208564325
aF-4.986789550838178
aF-4.353237083925443
aF-2.8303520657413332
aF-3.8385627913111584
aF-2.516749509907947
aF-4.879682924483578
aF-2.808608333925443
aF-0.8752722546349629
aF-1.3922982953814567
aF-4.199241303960385
aF-5.442468509078736
aF-3.5474589133497836
aF-2.6604057487723245
aF-3.4403709474647175
aF-3.9082641636549074
aF-3.242771871677559
aF-4.487852011526493
aF-2.501537048825138
aF-5.270804934048053
aF-4.163245184459595
aF-3.8388120839254425
aF-4.386862069386931
aF-4.458084425921673
aF-2.9867478503768363
aF-2.419591138060232
aF-2.9361824474957556
aF-1.8472662806143263
aF-2.753524453274213
aF-5.116551855445684
aF-3.579470393711462
aF-6.253822110830733
aF-6.67205486556434
aF-4.707533018827712
aF-5.036565071847528
aF-4.3944281125680185
aF-3.91614552852853
aF-2.593185308504031
aF-2.51833142931724
aF-4.353237083925443
aF-4.908374185588576
aF-5.158606644830576
aF-1.359930611443536
aF-3.7832370839254423
aF-5.431126150192911
aF-3.269527905742712
aF-1.1769446657234213
aF-3.8645333339254426
aF-4.6751623625845955
aF-3.7412034678245947
aF-5.715374798140158
aF-4.426873635294486
aF-2.4288959990056775
aF-2.116521060942489
aF-2.127312083925443
aF-3.6324464797291705
aF-3.4421216761593603
aF-5.2396002170763465
aF-3.268812083925443
aF-4.903796468242712
aF-4.975414952691612
aF-3.1396974358151803
aF-4.760147120156512
aF-4.237522970955733
aF-3.5857151193033445
aF-3.326834760667969
aF-3.7474022812086694
aF-2.0826671859782597
aF-4.160205845480845
aF-3.6179406947516966
aF-1.5361037147029413
aF-3.0112718969692747
aF-0.6621091313992129
aF-3.3745435214254433
aF-0.9039997421969415
aF-4.205472030324595
aF-4.291619630493485
aF-3.3860718740258893
aF-4.492970184932798
aF-4.279308236500451
aF-3.1569829474380247
aF-3.1999746551169856
aF-3.5818371222837264
aF-3.9342347062691925
aF-4.886684559481715
aF-2.807403322935365
aF-5.951930213082758
aF-3.1814181349380246
aF-4.834390592232995
aF-6.1485260178198775
aF-6.056654853506035
aF-5.630642496959595
aF-3.332199274080733
aF-2.727122782854171
aF-4.662627406631034
aF-4.296285823557139
aF-0.8614736349647185
aF-2.9778523703109383
aF-3.980234558764879
aF-5.314269852057295
aF-6.948714695659822
aF-1.8219760126209683
aF-3.37669905381561
aF-4.896138059611615
aF-4.677670184459595
aF-2.7540643056914496
aF-5.116217496959594
aF-4.36145462133956
aF-1.7743397714254434
aF-2.905135413654908
aF-2.792173028367262
aF-5.782442544647477
aF-3.819371468242713
aF-3.305813550116892
aF-1.1213610428832623
aF-3.7450095627661186
aF-4.662627406631034
aF-4.477135681955365
aF-7.400645005552753
aF-3.6456866974380246
aF-3.4149924282140476
aF-0.9321078016609903
aF-3.701850636057138
aF-4.253069210700403
aF-2.663818848751268
aF-4.2084625058166125
aF-3.7747513125890473
aF-4.570202659785539
aF-4.121784503211255
aF-5.158606644830576
aF-3.9116594902629647
aF-6.214522952103394
aF-3.9381016667542825
aF-4.829323884774854
aF-4.538355491315611
aF-2.9516671974647175
aF-3.267537051603259
aF-3.6456866974380246
aF-3.698425955472162
aF-3.8746370605530136
aF-3.545607167148236
aF-3.5216970708772033
aF-5.270053242959005
aF-3.0120432019943912
aF-5.8557698520572945
aF-4.086013746959595
aF-2.7033680157742133
aF-2.973734499861227
aF-2.76343602972429
aF-2.3306522909990437
aF-3.6098395967108683
aF-2.8032684891032593
aF-3.8981834203513785
aF-2.9555465323792824
aF-2.0465328016609905
aF-4.375938041082563
aF-6.048788418134185
aF-3.5338683733240916
aF-2.0463435005897184
aF-3.0662744642455992
aF-3.0717736365819484
aF-5.875672464995967
aF-4.9434141092580575
aF-3.5770351793172397
aF-5.259945853538331
aF-3.840086502598746
aF-4.128333083491854
aF-1.2202541567075622
aF-4.702980525106069
aF-2.692714384938025
aF-3.168177917229171
aF-3.325823101505817
aF-4.630763683481291
aF-2.3886311615779405
aF-3.857041620320282
aF-4.341251333110762
aF-4.030438746959595
aF-5.178649603538331
aF-2.9507238657140475
aF-2.8528871306123835
aF-3.279487051184411
aF-2.567014832694356
aF-4.825154220378531
aF-4.896529064932247
aF-3.282489219813436
aF-1.9359786974957558
aF-1.5237642391609905
aF-2.5086615266258763
aF-3.975304486027248
aF-4.734401775968697
aF-3.304083837591482
aF-2.846426990706802
aF-3.9727744249567234
aF-2.3511232807994835
aF-3.5937891011248295
aF-4.943786675236615
aF-4.102736645171269
aF-4.14256654178436
aF-3.963402362566123
aF-3.730251532854171
aF-5.245926723024741
aF-1.3993218838162633
aF-4.705630282232597
aF-4.929496036299481
aF-3.327297265716482
aF-3.1643163453541705
aF-4.7603832070171475
aF-4.253282947955577
aF-4.236615050084596
aF-4.798545082701346
aF-1.9485508218941932
aF-2.205060489160991
aF-1.9383611282770064
aF-2.4280380818130247
aF-4.884249818730471
aF-1.9485508218941932
aF-3.1708723542771144
aF-3.923952189071942
aF-2.4289110093941932
aF-2.8420785843336693
aF-4.079934780086908
aF-3.036185403558607
aF-3.7881741343012956
aF-3.736475517174326
aF-4.714087176307532
aF-3.1505268578246852
aF-2.734083837591482
aF-3.692813238949091
aF-4.38497730823315
aF-4.644181644830575
aF-1.5193587506207562
aF-3.7238172130464617
aF-5.97005557111045
aF-3.336716349833076
aF-4.298549132799326
aF-6.341099716928883
aF-2.530903553715678
aF-3.4363991557427123
aF-3.258367999093555
aF-4.517405372432798
aF-6.347065597898498
aF-5.338037509490277
aF-2.4850307498612274
aF-2.913196896424483
aF-4.397182008741582
aF-4.598817385265562
aF-1.8329894255505519
aF-2.6669931349380254
aF-2.1937671952238422
aF-3.8412016588632274
aF-3.493179571894193
aF-2.977030951077784
aF-3.723910083428379
aF-2.878948174802559
aF-3.1814181349380246
aF-3.294770225485407
aF-3.2296251525244157
aF-3.866790871447974
aF-4.155477894830576
aF-3.8780103390935796
aF-4.113065641621004
aF-3.7531639263041345
aF-3.6701914770134065
aF-2.9650670914677937
aF-4.339068450613673
aF-4.2801496786123785
aF-3.0524732693130248
aF-4.903796468242712
aF-4.760554386057138
aF-4.896982375115277
aF-4.12115022972917
aF-4.11122216209756
aF-3.970369090586463
aF-4.015371903497845
aF-1.340452709935232
aF-3.5361824474957553
aF-5.2283256326981995
aF-4.586734611330165
aF-4.7013835934710055
aF-2.8913672102489594
aF-4.229443372959164
aF-3.3328150644971837
aF-3.6150909166587164
aF-1.846176924142037
aF-4.008755618345688
aF-2.4859000089256984
aF-3.3898722221416016
aF-4.6880299271120975
aF-1.526379289572921
aF-5.053526103506035
aF-3.931797454770365
aF-1.1104958534990432
aF-3.675981622111615
aF-3.364244209469274
aF-4.079934780086908
aF-3.052971832830009
aF-3.373196239923443
aF-5.112593980018644
aF-4.780456998995811
aF-6.3173337728839964
aF-4.298549132799326
aF-4.042740027526046
aF-5.069577388584596
aF-1.5139666365230964
aF-4.194520095354171
aF-3.742626034481286
aF-4.06793279111486
aF-2.2623128813992133
aF-3.219888435978259
aF-5.7167529804425214
aF-2.7788333016032594
aF-5.134360613800741
aF-3.168177917229171
aF-3.691209332330576
aF-3.8780160185170267
aF-2.5191493636593605
aF-1.456600563945268
aF-3.0121074423043463
aF-3.0161684447995842
aF-2.046732378277006
aF-5.2600451907719705
aF-3.4408098448578612
aF-2.4289110093941932
aF-1.8253440213677123
aF-2.3209120344125496
aF-3.119133090110517
aF-2.692714384938025
aF-1.8527691952756415
aF-4.849333759490277
aF-4.17130666722917
aF-2.688236533952728
aF-3.922232372192447
aF-5.1922142488553575
aF-3.7085921859782593
aF-5.311752528765241
aF-2.409351064161928
aF-4.936527504177299
aF-4.907220079308718
aF-4.258667806803345
aF-3.358325871339561
aF-2.785184825152005
aF-2.9575945636345087
aF-3.448339910014112
aF-3.1126029172291707
aF-2.714130844371693
aF-5.053526103506035
aF-4.004717496959595
aF-2.835965458924483
aF-3.0336434781911237
aF-2.0257822593941937
aF-4.14835397930018
aF-5.51448979669142
aF-3.96022453975381
aF-3.8185205932994823
aF-5.191648993928731
aF-5.384841809611614
aF-2.71697766728599
aF-2.6064235631207557
aF-2.4653458782459685
aF-3.3539521890719417
aF-3.9001409214383918
aF-3.7316859007781225
aF-4.574717496959595
aF-2.7070205932994833
aF-5.210176357032509
aF-3.186508777347162
aF-5.047103558414195
aF-1.8264635489112393
aF-3.1973579479555765
aF-2.726402386938471
aF-3.6268776567398593
aF-4.942056306889144
aF-3.6351409167771145
aF-2.3199630536885083
aF-6.435640797617099
aF-4.344751312589048
aF-2.691092717697921
aF-4.903796468242712
aF-5.053526103506035
aF-2.934184324193587
aF-3.0052440006220342
aF-1.2888813348067747
aF-4.317114814872955
aF-2.9081144697104717
aF-3.579470393711462
aF-3.0951273131207553
aF-6.338412249109056
aF-5.971377634606391
aF-5.009317289399019
aF-3.052229368836255
aF-5.683822110830732
aF-3.956492428214048
aF-1.7367199785558156
aF-2.355562551719509
aF-4.3435160482359265
aF-3.8532400399882953
aF-3.579470393711462
aF-4.8750159845168035
aF-5.048627269701784
aF-5.835148419773498
aF-4.783923848957503
aF-5.794514837696363
aF-4.903796468242712
aF-3.322430882743344
aF-3.1041866974380246
aF-4.717551510455576
aF-3.8809392344202314
aF-4.36145462133956
aF-5.264246520961533
aF-3.431851985681927
aF-3.67425671877013
aF-3.589349798330731
aF-5.204888840195977
aF-4.0646890750942735
aF-3.7349159957862392
aF-3.3112491551979204
aF-2.67171148244224
aF-3.507532988952939
aF-2.142155000620756
aF-5.040493163988028
aF-4.439527905742711
aF-3.0590760272029405
aF-5.360406622111614
aF-5.319263044128243
aF-3.985986485945282
aF-4.591000601306927
aF-2.952006991654893
aF-3.9197493296506414
aF-8.173082776136315
aF-3.2787320213944056
aF-3.477897916754282
aF-5.486654853506034
aF-4.0635698875017745
aF-3.2860475625890473
aF-4.447704000089048
aF-5.203303866213295
aF-3.506591412876836
aF-5.1909388009084525
aF-5.646001686057485
aF-3.291450164989326
aF-3.963402362566123
aF-3.5223472281911232
aF-4.339068450613673
aF-2.5402072593941933
aF-4.474248309925552
aF-6.131660059230134
aF-2.466837393769193
aF-5.211640119303345
aF-3.5223472281911232
aF-5.278561884975902
aF-3.4002647714254435
aF-5.352667758863744
aF-4.484794090586462
aF-3.34115275775059
aF-3.6004205125942748
aF-3.937043660014111
aF-5.8945799472877045
aF-4.525646822407946
aF-2.878309706269193
aF-3.12700923828135
aF-2.808608333925443
aF-3.0517451844595946
aF-2.9090255280864623
aF-2.4707048009014616
aF-2.9126473447256065
aF-5.483927026529116
aF-3.816205204375595
aF-5.053908591378388
aF-3.5821074423043457
aF-7.032380939804746
aF-4.03180656006588
aF-4.725792694918739
aF-6.526190707147743
aF-5.334685372111614
aF-0.6865443188992129
aF-3.1308416207934844
aF-1.4608587506207562
aF-2.5611573782770063
aF-2.6331222511345094
aF-3.469966143769193
aF-1.5414111744267014
aF-5.73954110486642
aF-4.732328778974783
aF-2.746607726154908
aF-4.389621178214048
aF-3.3977883952477974
aF-2.046732378277006
aF-3.2635742516821393
aF-2.9964904978409264
aF-4.465131247197406
aF-4.114820539098032
aF-5.022526666754282
aF-4.903796468242712
aF-4.8173265894647
aF-3.2013207478766965
aF-3.727812780127903
aF-2.680298429120002
aF-2.913687781214857
aF-4.552730399046021
aF-4.095406156631035
aF-3.357526116781567
aF-4.445289550838178
aF-4.553545925057934
aF-4.076350238057797
aF-5.084950820609873
aF-3.456130924464561
aF-4.07471530433425
aF-5.00262405381561
aF-5.697412689963007
aF-4.780456998995811
aF-4.799364481287548
aF-6.619074455024735
aF-4.930120278050692
aF-1.0962222888702118
aF-4.063284503211255
aF-4.2917532489958115
aF-4.981673934932798
aF-4.86202381084742
aF-2.641737083925443
aF-3.3336333021208113
aF-3.0213607677017444
aF-3.0701902641793466
aF-2.9479909020767443
aF-2.00824788701477
aF-3.435114337947944
aF-2.400574679756456
aF-3.489515446316263
aF-4.735092739430797
aF-3.18844630251654
aF-4.83480770249369
aF-5.617441260982364
aF-4.14687147972917
aF-4.981673934932798
aF-2.9801905894745664
aF-2.2282739172859904
aF-4.620345423614618
aF-4.237593515829672
aF-3.804182994455365
aF-3.456288395247797
aF-3.9748668506374267
aF-3.7474022812086694
aF-3.787835511725885
aF-4.529333707371167
aF-2.9534179261593603
aF-3.168177917229171
aF-3.1814181349380246
aF-4.218259017015665
aF-4.505744209469274
aF-3.677996405198951
aF-2.7616876724283452
aF-4.362296468242711
aF-3.1876628605299073
aF-3.215925636057139
aF-4.840927255289195
aF-1.6566919978766967
aF-2.9648502380577977
aF-4.5998988447325955
aF-2.7697491551979208
aF-4.570692507223172
aF-2.0559472772029412
aF-3.637889135124549
aF-6.171520076501832
aF-1.3488223004041218
aF-4.243625028974784
aF-4.435992103971992
aF-2.055791762594275
aF-4.243625028974784
aF-3.7388579479555766
aF-2.5763416437114626
aF-5.2721634533213635
aF-4.657841167712977
aF-6.6089767997805735
aF-5.599268016845974
aF-3.0811287839216903
aF-4.2654946495059205
aF-4.3963525569892585
aF-4.196494720250905
aF-2.872728508850406
aF-4.14256654178436
aF-4.340741079130041
aF-3.515880529051312
aF-6.49551574480418
aF-3.9949369695969907
aF-3.458926985681927
aF-4.71238166602781
aF-4.484794090586462
aF-4.739675579778675
aF-4.439527905742711
aF-3.564009461506874
aF-2.949349144392695
aF-4.36145462133956
aF-2.101057947438025
aF-6.353640366998224
aF-4.793185372111615
aF-4.722266493337257
aF-3.5682172048026612
aF-4.312626034481286
aF-2.2394222577548804
aF-3.966461291006033
aF-3.6951150500845955
aF-2.915007427722374
aF-5.2494997330581175
aF-6.580718904869531
aF-5.542887721607325
aF-4.0224708960685875
aF-4.225817666786579
aF-3.297312083925443
aF-6.273444730135125
aF-1.3253373937691935
aF-4.7091933608307315
aF-4.2489066221116145
aF-3.348546475885282
aF-5.092236822142296
aF-5.348498413955733
aF-4.451414431955365
aF-3.8889685214254426
aF-5.111718562733823
aF-4.692940387761743
aF-5.01335164372253
aF-3.246366432691922
aF-3.6449586125845954
aF-3.3671814867691383
aF-2.6115979709557333
aF-3.201500583894405
aF-4.562516412876835
aF-4.293886383725136
aF-5.092671062621345
aF-3.476512758626249
aF-2.580702313120756
aF-5.15599614946615
aF-1.9032846370504433
aF-3.9670377820625284
aF-2.9893802629907085
aF-3.629636563116466
aF-2.892222992454541
aF-2.6584043245147706
aF-2.3511232807994835
aF-3.0907666437114623
aF-4.205634332330576
aF-3.1765257706734227
aF-4.00958041564513
aF-2.7745435214254432
aF-2.2676520176238446
aF-2.68341067925951
aF-4.82711031640515
aF-4.459594647229864
aF-3.5179231656423866
aF-4.077651920767376
aF-3.7349159957862392
aF-6.684040598965138
aF-3.276222454770364
aF-4.205871556803345
aF-4.540618800557797
aF-3.4685653274334505
aF-4.076196051152115
aF-3.8889685214254426
aF-2.922320484207045
aF-3.8628729073612584
aF-5.832734867007259
aF-5.059396257223171
aF-4.372386248594509
aF-2.822545405197921
aF-5.666102142524735
aF-5.123120182300783
aF-3.8388120839254425
aF-3.4799580803201424
aF-4.805208756592386
aF-2.243684825152006
aF-4.505281704420763
aF-5.383327676118412
aF-3.514591688032947
aF-4.814141749806757
aF-2.153033333925443
aF-2.9150739479878736
aF-3.9263672862994827
aF-3.2176139588134705
aF-4.17130666722917
aF-6.192610708460301
aF-3.3474685214254434
aF-5.929606058233151
aF-6.589472532116794
aF-3.574159889622617
aF-3.800052008400888
aF-5.451058113338177
aF-3.0273468831640176
aF-1.9553225755602326
aF-3.8501987002851092
aF-4.381713059611615
aF-5.183614264148157
aF-2.668738926304135
aF-1.684512987302559
aF-4.1585428309161525
aF-4.0791153815007055
aF-3.8456122173333434
aF-4.2590989593051445
aF-4.252662584825737
aF-5.0733778005447085
aF-3.0109028545779393
aF-6.277794399658858
aF-3.3112491551979204
aF-5.083839185139033
aF-2.7900282713944056
aF-4.669902894830575
aF-2.308120405197921
aF-3.060679267962491
aF-4.106423944723172
aF-2.990321778086462
aF-4.495352615714048
aF-5.402903073510097
aF-3.405174732406567
aF-4.419670435588575
aF-4.302956589805393
aF-5.141938746959594
aF-5.178069877973162
aF-2.569374915691124
aF-4.722501870973702
aF-3.4707844483202677
aF-4.694112884607461
aF-3.222270866759509
aF-4.591000601306927
aF-3.796467836580732
aF-3.0769861479828617
aF-3.6164586125845952
aF-3.124715523605845
aF-2.490766643711462
aF-4.911972562589047
aF-5.06574239896881
aF-3.7276603365783174
aF-6.244946149752683
aF-4.167991854953507
aF-3.5097690213677124
aF-4.439527905742711
aF-4.031252670789032
aF-1.8649912626520058
aF-3.5350756013069273
aF-4.102681644830576
aF-4.770584984928345
aF-2.872728508850406
aF-3.803086615431756
aF-5.307610372111614
aF-3.337558196736227
aF-4.9650064499078255
aF-2.692894220955733
aF-2.066634991215678
aF-4.505744209469274
aF-5.00262405381561
aF-2.204870501682139
aF-4.7056895393042675
aF-4.6846801633497845
aF-3.8185205932994823
aF-3.4089033822912125
aF-3.582838082330576
aF-2.5984889660018364
aF-2.3592096370504434
aF-3.980602744487662
aF-3.836563724401044
aF-4.793185372111615
aF-6.403209049081773
aF-2.811444583449595
aF-4.71099285112483
aF-2.7028236234782597
aF-2.9334883870504433
aF-3.0805744459331863
aF-1.570728595820129
aF-2.906401012620968
aF-2.477574170324685
aF-2.6726241327993265
aF-4.303430474956303
aF-3.899292286299482
aF-1.9377774199065676
aF-1.6134040516609907
aF-6.016615536658466
aF-3.1905514546255893
aF-4.205472030324595
aF-3.818101610260282
aF-2.9468276707890313
aF-3.008764075094275
aF-5.400676312589048
aF-2.4408459985868305
aF-3.629167818340677
aF-3.833300697845379
aF-2.440430050066124
aF-2.7741763936572204
aF-3.332199274080733
aF-3.395018729416374
aF-3.7054469115512476
aF-3.797901864620811
aF-5.148588153202712
aF-3.5241414193837035
aF-4.436980788077144
aF-3.4561222317373788
aF-3.8735927182427123
aF-2.73356711675951
aF-3.1687844623358683
aF-3.4753191282736293
aF-5.748291725948295
aF-3.6500391541033994
aF-3.9417152959733484
aF-2.219585351971774
aF-3.3866667765935796
aF-3.469966143769193
aF-5.470960726276849
aF-4.127123044127558
aF-3.241547782854171
aF-6.537945066977497
aF-1.8838440213677123
aF-6.410989086332336
aF-4.682217139596029
aF-3.365031709549859
aF-3.884503199671445
aF-3.285914875157088
aF-2.893257554281568
aF-2.185608705555658
aF-4.588215980933606
aF-3.6229641541033986
aF-3.5023331042542822
aF-4.920937442789194
aF-0.6388957032742133
aF-4.466340597213343
aF-4.506129146443985
aF-4.813587860529907
aF-6.2000720773684845
aF-5.096802452525986
aF-2.908874142589701
aF-2.319925129805454
aF-3.641029789491985
aF-3.2722069546743264
aF-3.7925114831658
aF-2.380940719124044
aF-4.271161453553461
aF-3.68594019746348
aF-2.7086541979555765
aF-4.582922744997434
aF-2.9611154594692746
aF-3.165610103811158
aF-3.312798815556103
aF-3.6370266346326288
aF-4.264073413955732
aF-3.6718013930747326
aF-3.6633260011345095
aF-3.7948303968051444
aF-4.551970632215927
aF-3.230052008400889
aF-2.1758050870466907
aF-5.231016640614662
aF-3.7085921859782593
aF-4.375938041082563
aF-6.085912413403188
aF-3.920555735681927
aF-3.702101834906707
aF-3.063023832749055
aF-3.615946939104239
aF-3.329816843299483
aF-5.8652037153442285
aF-3.963402362566123
aF-5.770157002542065
aF-3.727898975485407
aF-2.3443397714254433
aF-4.397547562589048
aF-4.205634332330576
aF-5.554687248784822
aF-3.4799580803201424
aF-4.4627413338677115
aF-4.14256654178436
aF-3.436069140148878
aF-4.194520095354171
aF-4.028167823446911
aF-4.205472030324595
aF-1.9058967780864622
aF-4.156238428358822
aF-1.5628759181105025
aF-3.2003534445007964
aF-2.6457530472344626
aF-2.141955091091935
aF-5.147938261767351
aF-5.271400333416567
aF-5.06491981960507
aF-4.595127694723172
aF-3.6790485081055544
aF-4.227754579618344
aF-3.7543144237115644
aF-3.704629386057138
aF-2.789167718242712
aF-4.954732129897178
aF-2.8858397714254433
aF-3.9263672862994827
aF-4.674529270480157
aF-5.621600808265448
aF-3.493179571894193
aF-5.316284533363177
aF-4.685786926365595
aF-4.544554304699684
aF-5.486654853506034
aF-2.9334883870504433
aF-3.906789835452784
aF-3.6351409167771145
aF-2.3743367089244836
aF-3.0907666437114623
aF-3.4596125838677123
aF-3.5878718513069274
aF-3.971169652195142
aF-4.188944484387934
aF-4.566571325119729
aF-3.8120645036861434
aF-3.204688436495811
aF-4.11720047545311
aF-3.2598786429721622
aF-4.222577762316853
aF-4.911212795758955
aF-3.948130299770789
aF-3.818925790114969
aF-4.33566835060513
aF-4.127594563634508
aF-4.265232244437818
aF-2.5386718456139277
aF-2.2269232584008893
aF-3.3842354823255976
aF-2.3040119170317066
aF-5.581425970126949
aF-1.867239217989975
aF-3.2761126724283445
aF-4.434660951761106
aF-3.847029621339561
aF-5.3424649846411265
aF-2.5819353105717235
aF-3.9352726899623245
aF-4.674591942993485
aF-4.294865565580617
aF-4.413385457976392
aF-6.283218587696364
aF-3.0532494063269007
aF-5.158606644830576
aF-5.151677142524734
aF-3.3785371699112217
aF-5.119619115046438
aF-2.329259825152006
aF-5.501077452354371
aF-5.414181069942319
aF-4.2092234197734975
aF-3.571314377241608
aF-4.09407522972917
aF-3.017396778086462
aF-4.627281527449733
aF-5.168464432412796
aF-2.3494120344125493
aF-2.918112583867712
aF-2.913196896424483
aF-4.061514291174164
aF-3.253919988090095
aF-4.074108159210868
aF-4.96601930429303
aF-3.2258097573679456
aF-3.6695998108240913
aF-2.535656992199685
aF-3.8645333339254426
aF-5.541105122143912
aF-4.393335457857995
aF-4.058101180757944
aF-3.638729214727439
aF-4.043738956211461
aF-4.2317584377639
aF-5.05216173895294
aF-2.882305619311144
aF-4.415092718242711
aF-5.434617330620966
aF-1.7816795718941933
aF-3.3667641636549073
aF-4.259365644746609
aF-3.4765585849066762
aF-3.3112491551979204
aF-4.246129386057139
aF-1.9174110093941934
aF-4.746094818595046
aF-3.542406089847162
aF-3.0697637412156777
aF-2.6507613635594276
aF-2.1549040516609907
aF-4.903796468242712
aF-2.6550103209689415
aF-5.813270627508592
aF-3.1162243636593603
aF-3.7683524000914823
aF-1.7743319204167223
aF-3.549422019890949
aF-1.9558813104344277
aF-3.204200411576702
aF-4.559100945345805
aF-4.9556995483701645
aF-4.265232244437818
aF-6.056654853506035
aF-2.6945825437120647
aF-4.981673934932798
aF-4.905725378261735
aF-2.9674271744645613
aF-4.850934193489481
aF-4.098199944384132
aF-2.9993158130897175
aF-3.016734291887365
aF-1.3215995615258893
aF-2.8904743530898576
aF-2.4242390910596385
aF-3.6036642286148597
aF-2.6719441020729207
aF-1.3424995359763783
aF-3.428502747544306
aF-2.9898677148354706
aF-2.8040768202993265
aF-6.188801702103394
aF-5.630642496959595
aF-2.8858397714254433
aF-5.094950331476921
aF-1.2027624181415404
aF-1.9560610954175774
aF-4.041475646969275
aF-4.5400191101312535
aF-2.4366725016886406
aF-4.017335955803306
aF-3.8930538798054535
aF-2.931301546660845
aF-2.887561880095597
aF-4.067046532379282
aF-3.3044066420721485
aF-1.930875882251697
aF-4.208511369303345
aF-2.653079197955577
aF-2.9959900505577974
aF-1.2035310796541148
aF-6.050728922895706
aF-3.579470393711462
aF-5.022526666754282
aF-3.65386279178436
aF-2.588282397982862
aF-3.9004968740258885
aF-2.1856227828541708
aF-4.986873819631455
aF-4.206047968964455
aF-5.756028087749439
aF-4.257425583894405
aF-2.6988365021480965
aF-2.7491755395729207
aF-3.9275848780172113
aF-4.595127694723172
aF-3.9684243975471993
aF-4.411340451680454
aF-3.3112491551979204
aF-3.591581992199685
aF-4.238300360279254
aF-2.0323573458201283
aF-3.0995998108240914
aF-4.903796468242712
aF-4.435438214695142
aF-3.6057942035194417
aF-4.1843251937525485
aF-5.0640275322001695
aF-3.3439541609824652
aF-2.5385921859782594
aF-2.9409061699065675
aF-2.727122782854171
aF-2.8655482807994836
aF-2.822545405197921
aF-4.743756784565588
aF-2.5269857678201424
aF-3.4746986125661232
aF-2.9524571558662855
aF-2.826897861863295
aF-2.731173518055658
aF-2.567014832694356
aF-1.2142130795721489
aF-2.366794888060232
aF-2.8078500224352316
aF-4.341552008400888
aF-1.4029860093941933
aF-4.238138761372184
aF-4.324884110529907
aF-1.606295971837065
aF-2.2657333536312994
aF-2.6504080661861433
aF-3.903696178214048
aF-4.375938041082563
aF-1.3656569921996846
aF-5.37523713529786
aF-4.525646822407946
aF-3.0077511161899673
aF-4.31617782696934
aF-3.9004968740258885
aF-5.036681167209679
aF-3.214008564216282
aF-2.836707226738421
aF-2.855021061230555
aF-3.846392168787549
aF-4.448999877632945
aF-2.9090531995504434
aF-2.5703722772029405
aF-2.882799709816394
aF-1.1323144900155808
aF-5.875856024770903
aF-2.5536273131207556
aF-2.8887617089244833
aF-6.5144659996149015
aF-4.354525119033719
aF-4.723911332031846
aF-3.8342805702993257
aF-3.587646488057798
aF-5.35110275868688
aF-3.9226390713853174
aF-3.766271244274881
aF-4.470917428214048
aF-5.546832515069351
aF-6.644571948052026
aF-3.8735927182427123
aF-3.6543291323352154
aF-4.662627406631034
aF-3.5857290936801443
aF-3.4066488657140477
aF-3.7078641011248292
aF-4.004717496959595
aF-3.847871468242712
aF-3.9006677182427123
aF-3.038676182852578
aF-6.056654853506035
aF-3.715157326711643
aF-4.887424066705764
aF-3.3086579589220673
aF-3.1379009873292523
aF-5.470960726276849
aF-4.696258999478875
aF-4.29701271674983
aF-2.2586874181415406
aF-3.3758280191488943
aF-2.665134896888368
aF-4.210557521426723
aF-3.559216818660013
aF-4.589257541006034
aF-4.366407750089048
aF-2.6732006238558204
aF-3.8937009902223734
aF-2.878948174802559
aF-4.036781473500876
aF-5.166373934459594
aF-3.2501541979555766
aF-4.152838082330576
aF-5.703739195911403
aF-3.540138224367119
aF-1.3604096567562993
aF-2.630052008400889
aF-3.4841432944333643
aF-2.1925955932994836
aF-2.1857877625164006
aF-2.5296283499457997
aF-5.327480305027642
aF-3.263231105769997
aF-2.4151894407459684
aF-3.3665269391821395
aF-4.319165837675
aF-3.997968290293218
aF-3.327297265716482
aF-5.715374798140158
aF-3.3542520307994828
aF-2.286972771367712
aF-5.319263044128243
aF-2.389209637050443
aF-4.981673934932798
aF-5.060642496959595
aF-4.724748380493485
aF-2.796923258400889
aF-4.086013746959595
aF-5.226183786380291
aF-5.37523713529786
aF-4.41239886227079
aF-5.06500266185815
aF-2.031320747876697
aF-3.5061960511521146
aF-2.938664091059638
aF-2.6436078016609903
aF-3.5797331593292663
aF-3.2118767785781097
aF-3.8980279057427123
aF-2.8078500224352316
aF-3.746188436495811
aF-4.541938746959595
aF-3.3119789249893703
aF-3.279944146425514
aF-2.858869090586462
aF-3.5397182944333645
aF-2.2146642657742133
aF-2.183007732442241
aF-2.7611477702013465
aF-2.425927174464561
aF-5.682608350259343
aF-5.225047008149734
aF-3.665589310376697
aF-3.1298395045596763
aF-3.0907666437114623
aF-2.4244931464244837
aF-3.6229426901181956
aF-3.730251532854171
aF-3.4228051120420004
aF-2.841434085438436
aF-2.4595186494691528
aF-2.6605592677340413
aF-3.3942442094692744
aF-3.851865731628241
aF-4.455082925236615
aF-2.4244931464244837
aF-2.7491755395729207
aF-3.661283364543435
aF-4.7012768222615255
aF-5.511372120914196
aF-4.409879059114482
aF-3.7557187274893256
aF-3.796467836580732
aF-4.794666826955897
aF-4.348368208568587
aF-2.487787512652006
aF-4.82523544280957
aF-5.158606644830576
aF-3.319855570299327
aF-5.245926723024741
aF-5.849110372111615
aF-4.043738956211461
aF-3.970369090586463
aF-5.304409952563058
aF-3.7176911158588224
aF-1.7584661437691933
aF-4.1639932252169585
aF-4.4881990538156105
aF-3.7683524000914823
aF-3.220408066186143
aF-2.148447962047651
aF-3.628907742811267
aF-4.78645173141915
aF-4.028384879126016
aF-5.050221234191419
aF-4.87090230823315
aF-4.117555000749137
aF-3.192296468242712
aF-3.9749712572231717
aF-1.685744478582562
aF-3.4755404594692743
aF-4.463557988762367
aF-2.845543279851392
aF-2.8630404589244836
aF-5.400676312589048
aF-6.524481906696812
aF-5.211640119303345
aF-5.158606644830576
aF-2.6071317073089837
aF-7.297693541261807
aF-4.341552008400888
aF-2.9812623937691933
aF-3.745077500222131
aF-2.913196896424483
aF-2.6936005395729206
aF-3.037359503211255
aF-4.039971532379282
aF-4.937921473057038
aF-2.8887617089244833
aF-4.930120278050692
aF-2.4443957593631556
aF-6.18344350868724
aF-2.881978199550443
aF-4.854440592351391
aF-3.0951273131207553
aF-3.604160199023096
aF-2.5984471006051293
aF-2.5928720791210047
aF-3.868894817450938
aF-4.26140893517133
aF-2.4976089566846382
aF-4.205472030324595
aF-4.495198428808365
aF-4.636470176483018
aF-3.7299272418357825
aF-3.275161817273157
aF-2.597291762594275
aF-5.232590238186157
aF-4.124338082330577
aF-3.8400965816488943
aF-2.5996261145406914
aF-2.7944299687086698
aF-2.553714623442489
aF-1.004933750620756
aF-2.384445947464718
aF-4.346574043381966
aF-2.4449835509014615
aF-4.379710785354804
aF-2.7124274000914816
aF-2.9082948880602317
aF-4.495198428808365
aF-3.330888554286222
aF-5.073700468557482
aF-2.9857061615779408
aF-4.251661050702572
aF-3.730350636057138
aF-4.055687953572944
aF-2.568595095354171
aF-4.040419792708662
aF-3.1242250096061546
aF-2.9453251468374417
aF-2.4447846370504434
aF-3.70100464210418
aF-5.923976424153336
aF-3.6456866974380246
aF-4.9027975395572945
aF-4.446222454770364
aF-4.791535103811157
aF-1.4739997421969415
aF-2.142155000620756
aF-4.792619152091017
aF-2.712616997876697
aF-1.5952628865230962
aF-1.6277300006207565
aF-4.353286676654498
aF-2.550212116721696
aF-4.679710674045555
aF-4.106423944723172
aF-4.474491456222529
aF-4.053572874842254
aF-4.2707384157867745
aF-5.3940932853984975
aF-3.9363335198986285
aF-3.9290774980199785
aF-3.84253874471872
aF-6.459077972156737
aF-3.6156662175869076
aF-3.248594676567489
aF-5.803914103650316
aF-3.493179571894193
aF-0.8330597160595672
aF-4.106644444751696
aF-3.3361932924937174
aF-2.7449445338949974
aF-4.030318318583317
aF-3.0951273131207553
aF-3.160872899054886
aF-2.7094274255935415
aF-5.630642496959595
aF-2.7701256584557337
aF-4.2540300100237625
aF-6.369118354617248
aF-3.017396778086462
aF-2.2396393056914503
aF-3.298973084906707
aF-5.116804930757944
aF-5.349533061746392
aF-2.9209162626520055
aF-4.439527905742711
aF-3.0217574474957556
aF-4.36010353810513
aF-3.9960903405864623
aF-2.9085407285825626
aF-4.823612509490276
aF-5.151331156631035
aF-2.709061512524925
aF-3.6374971454085334
aF-5.344364421699396
aF-4.319818375243321
aF-1.9458986349647185
aF-2.874645580691263
aF-3.310699603499044
aF-4.435438214695142
aF-3.5740368365460204
aF-3.598038081813024
aF-2.166273114620811
aF-3.5749925427261653
aF-3.5332581358870705
aF-4.210456998995811
aF-5.176714445637003
aF-4.260708296389304
aF-4.780456998995811
aF-4.110448934459595
aF-5.542229853506034
aF-3.479569920382416
aF-4.952738306807179
aF-3.1158482306105024
aF-2.9561230234357763
aF-4.060035563998755
aF-5.307610372111614
aF-5.329631005289196
aF-3.3743438666186316
aF-5.4280736440511905
aF-1.7816795718941933
aF-3.2340177176979203
aF-4.413385457976392
aF-4.072571743161372
aF-4.713666303960385
aF-5.0177462773021055
aF-4.770584984928345
aF-5.778680115410183
aF-3.0588477604555764
aF-1.1966204051979215
aF-2.5966073864743597
aF-2.6966903383455865
aF-0.623052697470322
aF-4.499647199923318
aF-4.110448934459595
aF-1.5328236234782593
aF-4.326138059611615
aF-4.1106198752110235
aF-3.289373325120968
aF-3.377465458924483
aF-2.8519023625661237
aF-4.22936448128755
aF-4.84094618454185
aF-3.5057705124926275
aF-2.5979377917843602
aF-3.5326816448305762
aF-4.205634332330576
aF-2.130047782854171
aF-4.195989604617246
aF-3.5404489344595946
aF-3.4123098448578615
aF-4.327480636397831
aF-5.158606644830576
aF-4.879339598799483
aF-4.526385342265292
aF-3.337681447470321
aF-4.076196051152115
aF-3.9939949203824154
aF-3.1170904535194417
aF-4.139255726598032
aF-4.6728135721388995
aF-4.811437716749829
aF-4.059822692121137
aF-4.653906089847162
aF-3.584051927043435
aF-4.896636267223509
aF-3.0186284921969415
aF-5.451058113338177
aF-4.086561413463266
aF-3.310699603499044
aF-2.0303358235054683
aF-2.2132522785341333
aF-5.06677518237074
aF-5.8057826523745275
aF-4.568728495574873
aF-4.086741831813024
aF-5.63388164837683
aF-4.9295085680035715
aF-3.8790581967362274
aF-4.431164458568587
aF-3.350824155742712
aF-4.7684550100237635
aF-4.065575229729171
aF-2.8732896342362273
aF-3.4212457238495664
aF-2.3520560751520057
aF-3.4403709474647175
aF-4.800676312589048
aF-3.315364657659282
aF-3.6745860046534338
aF-5.146458812844899
aF-4.216572852072921
aF-1.9450299260594277
aF-5.492981359454429
aF-2.8782673668077967
aF-4.426319841831692
aF-3.845288881723576
aF-4.859176312589047
aF-3.0951273131207553
aF-4.455082925236615
aF-3.120098204542071
aF-5.8408299138254565
aF-3.2503914224283452
aF-4.176665238186157
aF-4.205472030324595
aF-2.2766528400244157
aF-3.486383688090678
aF-5.5164303014529406
aF-4.607088153202712
aF-3.1814181349380246
aF-4.353237083925443
aF-3.1708723542771144
aF-3.21343234636492
aF-4.54028222527508
aF-4.624474407980844
aF-2.8858397714254433
aF-2.658645499333809
aF-3.5527607290466734
aF-0.48742720402831763
aF-4.0866011807579445
aF-5.541105122143912
aF-3.8962429155898577
aF-3.0691863099685412
aF-2.4244931464244837
aF-3.77551771769792
aF-4.8703600639374685
aF-4.060036787207811
aF-2.949886139739061
aF-4.293020000299594
aF-4.4881990538156105
aF-4.139481089847162
aF-3.84419175098472
aF-4.525646822407946
aF-3.022115125590678
aF-2.8141468224079467
aF-2.2965429290434742
aF-4.489396257223173
aF-3.912181949550442
aF-3.0568816672291708
aF-3.9491698030688993
aF-3.6896498109424893
aF-3.67829797928436
aF-2.6605821881092204
aF-4.852641102057294
aF-3.6120608229897195
aF-1.782912837077729
aF-3.2094968422230323
aF-3.3455768202993266
aF-2.908874142589701
aF-5.870551279724026
aF-4.811077553536717
aF-5.022526666754282
aF-3.4531625766793463
aF-2.863028703216482
aF-3.0375045063595127
aF-2.8858397714254433
aF-1.9837244891622696
aF-3.163105064648096
aF-4.059822692121137
aF-3.3570557954218296
aF-4.512026103506034
aF-3.738406227899153
aF-7.387398690752296
aF-4.092358669035169
aF-5.070865830912337
aF-5.327506354077692
aF-3.8812559777270126
aF-4.020132997696596
aF-5.8372146956598225
aF-4.047106644830577
aF-5.589648566720667
aF-5.151677142524734
aF-4.1193531136593595
aF-5.130953166068514
aF-2.189603706716935
aF-4.515341685036114
aF-3.8012864864184843
aF-3.3501083339254434
aF-2.4122443979083372
aF-4.778912905876799
aF-2.7663830422959736
aF-4.009666254621138
aF-3.683813614968809
aF-2.7273479429921412
aF-3.4682425229527842
aF-4.718752671984507
aF-2.6601972511345098
aF-3.219888435978259
aF-1.9032846370504433
aF-2.4152320388069275
aF-7.15627448280014
aF-2.8741363474939
aF-4.8709607262768495
aF-3.613977894830576
aF-3.192296468242712
aF-5.132592804385762
aF-3.9181361777223733
aF-4.78536326021716
aF-4.354179133140019
aF-2.1849023869384707
aF-2.3511232807994835
aF-3.460662438090678
aF-5.216186537683483
aF-4.540618800557797
aF-3.307283445900889
aF-3.719873217957677
aF-4.903796468242712
aF-3.4407598251520057
aF-5.052036152754592
aF-3.5860945636345094
aF-2.314744575120968
aF-4.670663428358822
aF-3.0217574474957556
aF-4.684319590702712
aF-3.4930005149334504
aF-3.4718119084802765
aF-4.297428884597131
aF-2.7292922862994815
aF-3.3694039761549073
aF-2.7697491551979208
aF-2.913196896424483
aF-2.853432143990643
aF-3.3455768202993266
aF-4.504362304301971
aF-4.165542134037337
aF-2.6064235631207557
aF-3.8864255020228318
aF-4.6480873625845955
aF-3.7256584895205824
aF-5.477620206222529
aF-2.612716524547651
aF-2.305406114219509
aF-3.7680471490166587
aF-2.142155000620756
aF-3.9507544544416118
aF-5.047026918890713
aF-4.305029288615286
aF-4.5022084076985545
aF-4.981673934932798
aF-3.7458371383242195
aF-3.3426264054399746
aF-4.558258104254283
aF-3.456877986532747
aF-2.495127313120756
aF-6.826786483614995
aF-4.237522970955733
aF-2.8330435214254432
aF-2.1186972511345097
aF-3.729867994356847
aF-4.83419065295888
aF-4.62243177138977
aF-6.446840676907621
aF-6.83720295968577
aF-3.456130924464561
aF-5.652676664122268
aF-4.197075435949734
aF-1.8162272909990436
aF-1.7138489172859908
aF-2.8837924443943095
aF-3.7021044361211812
aF-2.5988852852205864
aF-3.8980279057427123
aF-2.0463435005897184
aF-3.445530956269193
aF-3.8342805702993257
aF-3.034730334449485
aF-2.681368042668435
aF-2.7058230736247575
aF-2.765289835452784
aF-2.5605318531144015
aF-2.3391797626209683
aF-3.406816333867712
aF-3.9903903638699063
aF-5.190388061621541
aF-5.158606644830576
aF-4.974253975967681
aF-4.834390592232995
aF-4.094158159329266
aF-4.168437389028434
aF-4.341552008400888
aF-4.60590422545311
aF-2.1506034944378176
aF-3.648411204370918
aF-4.670663428358822
aF-2.5804131201846765
aF-2.9682172048026607
aF-3.253927400091482
aF-3.851695206222529
aF-3.2427680556914495
aF-4.998778679064135
aF-3.450753105415559
aF-5.299553652005292
aF-4.831031580550809
aF-3.4746986125661232
aF-4.484794090586462
aF-2.842259464576744
aF-5.358568198307291
aF-1.7491624380906776
aF-2.101944102072921
aF-1.7843685941808156
aF-3.9483163338677127
aF-2.699793727489326
aF-3.213650297612662
aF-2.6703767785781096
aF-3.6061627196593813
aF-1.7533218024588093
aF-5.260686695003171
aF-1.5415888787119454
aF-1.3808473926262608
aF-3.9406188005577976
aF-3.6456866974380246
aF-2.8449295521208113
aF-3.2850435727978584
aF-3.289373325120968
aF-5.00010899235484
aF-1.9383611282770064
aF-2.286584369311144
aF-3.028911009394193
aF-4.279275984490867
aF-5.706597196251297
aF-3.0598066672291706
aF-3.753237083925443
aF-3.146768280324595
aF-3.0094703937114624
aF-2.035007402430658
aF-3.4334712572231716
aF-2.418116973849567
aF-1.3332846370504434
aF-4.38916100584891
aF-1.8836546031423869
aF-2.8377759902223736
aF-6.057386011364215
aF-2.3290705240807337
aF-2.1083884359782594
aF-1.206841894840443
aF-2.6217759088649193
aF-3.705816345354171
aF-2.6323432803245947
aF-4.52257643257863
aF-4.663284503211256
aF-3.963402362566123
aF-4.989256250412705
aF-4.397350803675419
aF-5.166373934459594
aF-4.770438507367946
aF-2.925945947464718
aF-3.3751282868584136
aF-2.6617544084557334
aF-4.432233692789195
aF-3.7085921859782593
aF-3.731533516773024
aF-3.377465458924483
aF-4.2010591297731565
aF-2.1856227828541708
aF-4.845468714995967
aF-3.163105064648096
aF-4.298549132799326
aF-3.9342347062691925
aF-4.051408634897094
aF-4.784231572174594
aF-2.0257822593941937
aF-3.8342805702993257
aF-3.195736050702572
aF-1.8103033115258893
aF-2.977156189045996
aF-4.344737859981848
aF-5.400676312589048
aF-4.446222454770364
aF-3.1810309393277905
aF-4.760554386057138
aF-2.9953440213677123
aF-3.8645333339254426
aF-4.889191140821364
aF-3.970618800557798
aF-4.375938041082563
aF-3.131619375532947
aF-4.899539834797752
aF-4.103551666504289
aF-3.8645333339254426
aF-4.120928690367274
aF-2.149592717697921
aF-4.176051510455577
aF-4.00716558654602
aF-3.4002647714254435
aF-4.798545082701346
aF-3.2257888595125705
aF-5.006581353390054
aF-4.5435070059092695
aF-4.152919629357783
aF-3.447713477521623
aF-3.49504729172906
aF-2.4508021879627893
aF-3.0114274115779405
aF-3.3112491551979204
aF-4.042771652835563
aF-3.6456866974380246
aF-5.353519817274396
aF-3.9659749305769
aF-4.237522970955733
aF-3.5223472281911232
aF-6.269330970209891
aF-2.819356040999044
aF-3.620323125532947
aF-3.246605447669715
aF-3.3706695751209677
aF-2.9073789129574212
aF-4.457265027335471
aF-3.878280807412706
aF-3.6507773398471626
aF-3.2340177176979203
aF-3.940657925236615
aF-2.971352069079977
aF-2.692390289130329
aF-3.6436052868994153
aF-4.907497101740831
aF-3.0315225463854345
aF-1.2495803547859907
aF-2.2384292769647005
aF-4.234051365410182
aF-3.081462938032947
aF-3.5223472281911232
aF-3.4891820323091247
aF-1.8697623937691934
aF-4.928276798527248
aF-2.8259493290936972
aF-2.7625955932994835
aF-5.0737348080498155
aF-2.9156876757184547
aF-7.162402972975042
aF-3.2860475625890473
aF-3.7237322444378176
aF-4.081326514001831
aF-4.215512027928007
aF-3.0681996149855024
aF-6.202802414214265
aF-2.0266005639452676
aF-3.888564796691419
aF-4.362296468242711
aF-3.3629478865415674
aF-3.168177917229171
aF-4.508101666754283
aF-2.5144860093941936
aF-3.3130596864958113
aF-5.227500004525508
aF-4.525646822407946
aF-4.5293658309123375
aF-3.7645791979555767
aF-1.9088231255329466
aF-2.1856227828541708
aF-2.762235639385821
aF-2.9953440213677123
aF-4.495198428808365
aF-3.635473900367134
aF-3.1973579479555765
aF-1.1851398354096163
aF-1.5471877479344278
aF-4.495619301155513
aF-4.683193839032512
aF-3.228494985458081
aF-4.492671062621345
aF-3.963402362566123
aF-1.4323014045693565
aF-2.896274943188657
aF-2.586715718792188
aF-2.3716968964244836
aF-3.681728092732426
aF-5.001413374703736
aF-1.8447423760824229
aF-3.8821955532068024
aF-4.739604267174326
aF-4.043738956211461
aF-4.036080547580365
aF-5.67122144884558
aF-4.903796468242712
aF-4.817880255080899
aF-4.56903463498422
aF-3.7582925847049955
aF-4.359621178214048
aF-2.8871242691488948
aF-4.0987654275862315
aF-2.6518863323671353
aF-5.043561754245739
aF-3.8348279772581213
aF-3.627777530644015
aF-5.430107994455365
aF-3.3342659799392886
aF-2.385669350930967
aF-2.487787512652006
aF-2.8710959264388034
aF-4.507008590026045
aF-3.364536289988295
aF-3.9348829067075624
aF-4.133868373324091
aF-3.801395064015918
aF-2.9322389562114624
aF-4.833490473468579
aF-4.439527905742711
aF-3.53102388189431
aF-2.9334883870504433
aF-4.043738956211461
aF-4.1993387451919215
aF-2.529519545381456
aF-5.6482080648707775
aF-1.6630435214254429
aF-4.7128261858151825
aF-2.1386541979555767
aF-4.627513746959595
aF-3.163105064648096
aF-4.2758265894647005
aF-3.0254259407770054
aF-5.3289958207961305
aF-2.687630954028317
aF-3.5412547104828613
aF-2.9592096370504435
aF-4.891310182820282
aF-3.9513603947789058
aF-5.189587362584595
aF-2.8988592975803646
aF-2.9012716528355615
aF-4.058402500121344
aF-4.386905264180454
aF-3.760375635435365
aF-3.370681949550443
aF-4.627897110830732
aF-4.009566905087713
aF-5.161688456624491
aF-3.3860718740258893
aF-2.4964011318663237
aF-2.5922549298089854
aF-2.5402072593941933
aF-2.684429543814439
aF-5.232590238186157
aF-3.6696848221389002
aF-2.8382798415224926
aF-4.3363901290937195
aF-5.0306424969595955
aF-4.49041658199955
aF-1.3744955125942746
aF-3.4240525971992253
aF-3.344948325120968
aF-3.7085921859782593
aF-3.9082641636549074
aF-2.026558193397583
aF-4.36145462133956
aF-4.620271548559545
aF-3.4755404594692743
aF-3.0177934807746025
aF-2.565559854648236
aF-1.004933750620756
aF-3.6805014443620125
aF-3.5223472281911232
aF-2.490318250111881
aF-4.138602253048319
aF-2.692714384938025
aF-2.5001902641793468
aF-3.4604131454763927
aF-5.092671062621345
aF-1.8882046907770063
aF-1.641507732442241
aF-2.9812623937691933
aF-3.3112491551979204
aF-3.921241333867713
aF-2.968040902195142
aF-3.668994273605845
aF-4.718752671984507
aF-4.551970632215927
aF-5.630642496959595
aF-2.721820645306323
aF-4.374370446567061
aF-3.5530673933033063
aF-4.160205845480845
aF-5.666102142524735
aF-3.813055636397831
aF-3.680095095354171
aF-3.1085921859782593
aF-2.9735496521855964
aF-3.6004205125942748
aF-3.7176911158588224
aF-2.0698145037709703
aF-3.286444533894997
aF-3.044644054714489
aF-4.4339432085685875
aF-3.998472771367713
aF-4.353237083925443
aF-4.748829161576702
aF-2.844571874025889
aF-2.2325772904542522
aF-4.728503689329633
aF-4.36998525071684
aF-4.552730399046021
aF-2.203953642972162
aF-4.995712340026044
aF-2.263043521425443
aF-2.1160863901726508
aF-1.9603210614156914
aF-3.6654717794094784
aF-3.147972155535141
aF-3.579470393711462
aF-3.8772293035333196
aF-4.440792286299482
aF-3.762007991204329
aF-6.171678615165514
aF-2.754832056336255
aF-2.1336692292843606
aF-1.4557822593941934
aF-3.920399486964561
aF-3.3501083339254434
aF-2.6783884359782593
aF-3.7144227604555766
aF-4.5306580743735045
aF-5.662886464089917
aF-3.241178349051247
aF-6.402624549801101
aF-6.424763086136313
aF-2.768252110062818
aF-3.411793124025889
aF-3.8937009902223734
aF-2.796824155197921
aF-2.4244931464244837
aF-2.913196896424483
aF-1.7584661437691933
aF-3.4408098448578612
aF-4.079934780086908
aF-4.544971257223172
aF-5.306426444362014
aF-5.110131320137299
aF-4.421214835452784
aF-3.176940283952728
aF-4.482726667107028
aF-3.517185348883954
aF-4.180896467076347
aF-3.320753769659049
aF-4.231501977772117
aF-2.7564797402223737
aF-3.1748636051009718
aF-2.4180438793402357
aF-4.341588317678615
aF-3.670105694486047
aF-3.436228311525889
aF-2.9082948880602317
aF-2.9867557302079506
aF-4.322004447845379
aF-3.604160199023096
aF-4.09491792615936
aF-3.244323623478259
aF-4.586996743161372
aF-4.811437716749829
aF-2.149592717697921
aF-1.4194035537156777
aF-5.103682541006035
aF-3.409527189071942
aF-2.9993158130897175
aF-3.0907666437114623
aF-3.0907666437114623
aF-2.6715477828541707
aF-2.1451074800918994
aF-4.643825566126907
aF-4.595791218275009
aF-2.866399155742712
aF-3.8645333339254426
aF-4.859794663955732
aF-3.150943810348172
aF-4.896982375115277
aF-2.257903976154908
aF-4.2489066221116145
aF-4.760554386057138
aF-4.700078331265484
aF-2.3182296437381553
aF-3.958849110080365
aF-5.773590236590364
aF-2.703964901004083
aF-3.405023519598406
aF-5.242898968612209
aF-3.677918860112662
aF-2.608185010921534
aF-4.002585133647823
aF-2.9043583760298937
aF-5.592386291006034
aF-2.4244931464244837
aF-3.940657925236615
aF-4.306316422428345
aF-2.8304924176756536
aF-3.9960903405864623
aF-3.65180946694686
aF-3.173254408455733
aF-6.3604417993556455
aF-2.4497543303201423
aF-2.8330435214254432
aF-1.9058967780864622
aF-3.9313311142195086
aF-1.469202313120756
aF-3.3357834459008893
aF-4.975443208568588
aF-1.8580492857480042
aF-2.102746270194356
aF-3.0907666437114623
aF-3.7271090879802413
aF-3.9305366312074934
aF-4.245712489227743
aF-2.952347228191124
aF-2.4105560751520057
aF-4.591000601306927
aF-2.314744575120968
aF-2.4664863695035897
aF-2.8155514722744313
aF-2.2282739172859904
aF-3.9006677182427123
aF-2.2027735312086696
aF-3.323033333925443
aF-4.421214835452784
aF-3.875747029851392
aF-4.086741831813024
aF-5.4080552377366145
aF-3.4002647714254435
aF-3.138592185978259
aF-3.14690350732797
aF-2.3982690213677125
aF-3.2501541979555766
aF-4.018230453075604
aF-3.950473193629935
aF-4.561835604882074
aF-2.642557947438025
aF-1.6277300006207565
aF-3.555035206211462
aF-3.809195225485407
aF-3.77551771769792
aF-2.4375532462373837
aF-5.332572248052277
aF-3.0580786656911236
aF-3.7931798669378614
aF-3.273152668535182
aF-4.510128610805793
aF-5.470960726276849
aF-3.6456866974380246
aF-2.590647852072921
aF-5.243491982273497
aF-1.8791746047549729
aF-3.4137181805597727
aF-3.190693991460385
aF-2.3155723447256062
aF-3.9470742588853174
aF-2.280495853499043
aF-4.989052860080364
aF-4.159579109303463
aF-3.3917820177591844
aF-6.31739051887681
aF-3.102856292128024
aF-1.9100681464244842
aF-4.994429594667067
aF-4.002212457796533
aF-4.685378001293048
aF-3.4257738402810656
aF-4.065575229729171
aF-4.259642769531847
aF-2.535656992199685
aF-4.669902894830575
aF-3.2780229660238946
aF-3.5097690213677124
aF-3.167457521313471
aF-2.15603705160326
aF-3.1064037789747836
aF-2.0897864864184843
aF-3.89993414904602
aF-5.007795113961443
aF-4.218028704949248
aF-5.258838528604647
aF-4.9644068817720886
aF-4.512026103506034
aF-4.205634332330576
aF-4.975443208568588
aF-2.6659410177594185
aF-3.0559881255596597
aF-4.9711051221439115
aF-2.6988365021480965
aF-4.351436129711696
aF-5.289362441593719
aF-2.9273752007712615
aF-3.2862641155452366
aF-3.975087438090677
aF-2.2282739172859904
aF-2.8909120344125494
aF-3.8342805702993257
aF-4.661343998449735
aF-6.19593494446876
aF-5.57367739567924
aF-3.7390508296183445
aF-3.292741333867712
aF-3.1358163453541708
aF-4.663584158038825
aF-4.489396257223173
aF-2.6869998208241364
aF-3.3778706557399687
aF-2.1021078016609906
aF-5.234224603538331
aF-3.4510164128768364
aF-2.6443157343879333
aF-2.4191134067562996
aF-3.9062040000890477
aF-3.4916931755505516
aF-4.873727873589781
aF-3.9004968740258885
aF-5.541105122143912
aF-4.780822689121786
aF-2.3511232807994835
aF-3.762219114958809
aF-2.8284911552312484
aF-3.2108042895729207
aF-1.555142172825248
aF-4.615015218753211
aF-3.604160199023096
aF-3.0907666437114623
aF-3.083613081813025
aF-4.225179267174327
aF-4.583331610395705
aF-2.913196896424483
aF-3.7051834077784793
aF-0.7985681464244838
aF-2.3364133870504435
aF-3.0768060300869085
aF-3.5453313713493504
aF-4.579930729988928
aF-5.216136200872672
aF-5.285769852057294
aF-2.411490040019404
aF-2.5611573782770063
aF-2.353554670351378
aF-2.8449295521208113
aF-2.5006802868994153
aF-3.0038856965373375
aF-2.539962938032947
aF-2.4473967780864623
aF-3.581216185077572
aF-4.131522655775009
aF-5.766519079826525
aF-5.090669568762767
aF-3.604160199023096
aF-5.338037509490277
aF-4.237522970955733
aF-2.1117221190986855
aF-2.468879563087302
aF-4.931592495050656
aF-1.5596758448901593
aF-5.208423019759527
aF-3.4115176536461767
aF-5.3558610668044775
aF-4.353237083925443
aF-3.269527905742712
aF-5.901390271392606
aF-4.631980000749136
aF-3.5097690213677124
aF-3.942517222854804
aF-3.410699943188656
aF-4.3076946047514
aF-3.50815174131561
aF-5.064628009217254
aF-3.67425671877013
aF-2.553954732881456
aF-4.845981622111615
aF-2.4244931464244837
aF-6.033216244744947
aF-5.94054807221185
aF-2.487787512652006
aF-2.2374261571781746
aF-3.0891493636593603
aF-2.223723650091482
aF-3.726771583416568
aF-4.810369703833675
aF-3.587646488057798
aF-4.187259311621541
aF-3.101420274547651
aF-3.400369090586462
aF-3.034160199023096
aF-4.017040459469275
aF-1.9150548765719415
aF-3.3130596864958113
aF-5.092525219607714
aF-3.1643163453541705
aF-3.9960903405864623
aF-5.058617828566279
aF-1.4996538354626505
aF-5.395742383159821
aa(lp4
cnumpy.core.multiarray
scalar
p5
(cnumpy
dtype
p6
(S'f8'
p7
I0
I1
tp8
Rp9
(I3
S'<'
p10
NNNI-1
I-1
I0
tp11
bS'\x9e\xef\xa7:\xe1W\xc9?'
p12
tp13
Rp14
ag5
(g9
S'\xd7\xa3\xb0m\xfe \xc0?'
p15
tp16
Rp17
ag5
(g9
S'\xdd$\x86\xa4\x1e\x8f\xbd?'
p18
tp19
Rp20
ag5
(g9
S'\xfc\xa91g\x10\x82\xb3?'
p21
tp22
Rp23
ag5
(g9
S'\xa2E6]\xfea\xb6?'
p24
tp25
Rp26
ag5
(g9
S'P\x8d\x97\xb3\xc3\xfd\xa6?'
p27
tp28
Rp29
ag5
(g9
S'\xf0\xa7\xc6\x01\xfci\xaa?'
p30
tp31
Rp32
ag5
(g9
S'\xd5x\xe9\xaf.\x98\x99?'
p33
tp34
Rp35
ag5
(g9
S'V\x0e-\xbf>\x1b\xae?'
p36
tp37
Rp38
ag5
(g9
S'\xbct\x93$\x08Z\xa9?'
p39
tp40
Rp41
ag5
(g9
S'L7\x89\xe2\x0f\xae\xa2?'
p42
tp43
Rp44
ag5
(g9
S'\xb2\x9d\xefKR\xc7\x9d?'
p45
tp46
Rp47
ag5
(g9
S'\xd3Mb\xe4\xc9\x13\x9f?'
p48
tp49
Rp50
ag5
(g9
S'\xf4\xfd\xd4\x8cv\xbf\x97?'
p51
tp52
Rp53
ag5
(g9
S'\xdd$\x06!q|\x8d?'
p54
tp55
Rp56
ag5
(g9
S'\xb2\x9d\xef\xeb\xd9\xc9\x87?'
p57
tp58
Rp59
ag5
(g9
S'{\x14\xae\xff^\x9f\x86?'
p60
tp61
Rp62
ag5
(g9
S'B`\xe5t\x07\xcb\x83?'
p63
tp64
Rp65
ag5
(g9
S'%\x06\x81\xd5\x8e6\x82?'
p66
tp67
Rp68
ag5
(g9
S'9\xb4\xc8\xe0\xe0U\x82?'
p69
tp70
Rp71
ag5
(g9
S'\x91\xed|\xb3A\x1f\x82?'
p72
tp73
Rp74
ag5
(g9
S'H\xe1z\xb0G\x82\x81?'
p75
tp76
Rp77
ag5
(g9
S'!\xb0r\xfc@\xa1\x80?'
p78
tp79
Rp80
ag5
(g9
S'\x9a\x99\x99\xd5\x9b\xcf\x80?'
p81
tp82
Rp83
ag5
(g9
S'\x87\x16\xd9\xfaa7\x83?'
p84
tp85
Rp86
ag5
(g9
S'y\xe9&\x7f\xe86\x83?'
p87
tp88
Rp89
ag5
(g9
S'`\xe5\xd0"l\x9a\x7f?'
p90
tp91
Rp92
ag5
(g9
S'\xe5\xd0"\r\xac\x98\x83?'
p93
tp94
Rp95
ag5
(g9
S'm\xe7\xfb#\x82\x88\x83?'
p96
tp97
Rp98
ag5
(g9
S'sh\x91\x9d\x1f\x96\x85?'
p99
tp100
Rp101
ag5
(g9
S'\xfe\xd4x\x11\xb6\xe8\x7f?'
p102
tp103
Rp104
ag5
(g9
S'\xaa\xf1\xd2\x01\xcd\x13\x82?'
p105
tp106
Rp107
ag5
(g9
S'\x19\x04V0\xf7\xf3\x88?'
p108
tp109
Rp110
ag5
(g9
S'+\x87\x16!0b\x80?'
p111
tp112
Rp113
ag5
(g9
S'?5^\xb6H\x86\x80?'
p114
tp115
Rp116
ag5
(g9
S'\xb4\xc8v*\\O\x85?'
p117
tp118
Rp119
ag5
(g9
S'\\\x8f\xc23\x13\xa5\x80?'
p120
tp121
Rp122
ag5
(g9
S'333#\xa5\x19\x83?'
p123
tp124
Rp125
ag5
(g9
S'\xd1"\xdb\xb9\xda\xc8\x85?'
p126
tp127
Rp128
ag5
(g9
S'\x06\x81\x95\x85\xaaA\x80?'
p129
tp130
Rp131
ag5
(g9
S'\xaa\xf1\xd2e\xfd\x89\x80?'
p132
tp133
Rp134
ag5
(g9
S'm\xe7\xfb\xfd\xadL\x82?'
p135
tp136
Rp137
ag5
(g9
S'j\xbctC\x85/\x83?'
p138
tp139
Rp140
ag5
(g9
S'\xc3\xf5(X\x9d\x98\x81?'
p141
tp142
Rp143
ag5
(g9
S'\xe5\xd0"\x1b\xe5\xf3\x85?'
p144
tp145
Rp146
ag5
(g9
S'\x06\x81\x95\x93\xbeX\x88?'
p147
tp148
Rp149
ag5
(g9
S'+\x87\x16I\xbc\xc7\x81?'
p150
tp151
Rp152
ag5
(g9
S'R\xb8\x1e\t\x0c\x1a\x85?'
p153
tp154
Rp155
ag5
(g9
S'`\xe5\xd0\xca?\xc8\x89?'
p156
tp157
Rp158
ag5
(g9
S'\x83\xc0\xca\x95\x81\\\x82?'
p159
tp160
Rp161
ag5
(g9
S'\xbct\x93\x88\xda\x94\x83?'
p162
tp163
Rp164
ag5
(g9
S'\xa8\xc6K\xb7\xf5\xf3\x81?'
p165
tp166
Rp167
ag5
(g9
S'b\x10X\xad\xa4C\x82?'
p168
tp169
Rp170
ag5
(g9
S'\x91\xed|\xabG\xa0\x82?'
p171
tp172
Rp173
ag5
(g9
S'\x04V\x0e]W<\x83?'
p174
tp175
Rp176
ag5
(g9
S'333S\xa3\xe1\x82?'
p177
tp178
Rp179
ag5
(g9
S')\\\x8f\xfa\xdb\xec\x81?'
p180
tp181
Rp182
ag5
(g9
S'\xac\x1cZti#\x82?'
p183
tp184
Rp185
ag5
(g9
S'{\x14\xae\x93\xed\x8b\x81?'
p186
tp187
Rp188
ag5
(g9
S'1\x08\xac\xa02\x97\x81?'
p189
tp190
Rp191
ag5
(g9
S'V\x0e-:F\xcc\x81?'
p192
tp193
Rp194
ag5
(g9
S'\xcb\xa1E\x16\xf0{\x81?'
p195
tp196
Rp197
ag5
(g9
S'\xe7\xfb\xa9\xc1\x18\x16\x81?'
p198
tp199
Rp200
ag5
(g9
S'\xa4p=\xd2\x85\xca\x80?'
p201
tp202
Rp203
ag5
(g9
S';\xdfO\x81 \x0b\x81?'
p204
tp205
Rp206
ag5
(g9
S'\xa8\xc6K\x7fK\xbd\x80?'
p207
tp208
Rp209
ag5
(g9
S'\x85\xebQlo\x92\x80?'
p210
tp211
Rp212
ag5
(g9
S'\x0e-\xb2Q\x11\xc5\x80?'
p213
tp214
Rp215
ag5
(g9
S'T\xe3\xa5\x7fm\x83\x80?'
p216
tp217
Rp218
ag5
(g9
S'\xbaI\x0c\xae\x973\x80?'
p219
tp220
Rp221
ag5
(g9
S'\x14\xaeG!9\xe4\x7f?'
p222
tp223
Rp224
ag5
(g9
S'\x8f\xc2\xf5`\xf8\xf5\x7f?'
p225
tp226
Rp227
ag5
(g9
S'\xa8\xc6K\xb7\x8c\xc2\x7f?'
p228
tp229
Rp230
ag5
(g9
S'L7\x89\xb9\xf4\x1f\x7f?'
p231
tp232
Rp233
ag5
(g9
S'\xc1\xca\xa1\xf5\xb4\x05\x7f?'
p234
tp235
Rp236
ag5
(g9
S'\xc5 \xb0\xbe\x89\xfe~?'
p237
tp238
Rp239
ag5
(g9
S'\xfe\xd4x)zJ~?'
p240
tp241
Rp242
ag5
(g9
S'-\xb2\x9d+\x98\xb9}?'
p243
tp244
Rp245
ag5
(g9
S'\x14\xaeG)\xbe\xa6}?'
p246
tp247
Rp248
ag5
(g9
S'h\x91\xed\x1c\xaa\x02}?'
p249
tp250
Rp251
ag5
(g9
S'Nb\x10\xf8\xa60}?'
p252
tp253
Rp254
ag5
(g9
S'B`\xe5\x14H\t}?'
p255
tp256
Rp257
ag5
(g9
S'\x96C\x8b\x1cS%|?'
p258
tp259
Rp260
ag5
(g9
S'\xbaI\x0cB@%|?'
p261
tp262
Rp263
ag5
(g9
S'\xaa\xf1\xd2m\x14(|?'
p264
tp265
Rp266
ag5
(g9
S'b\x10X\x91L\xb4{?'
p267
tp268
Rp269
ag5
(g9
S'`\xe5\xd0R\x05\xbb{?'
p270
tp271
Rp272
ag5
(g9
S'u\x93\x18\xd4\xa0}{?'
p273
tp274
Rp275
ag5
(g9
S'\xecQ\xb8nFL{?'
p276
tp277
Rp278
ag5
(g9
S'\xee|?\xc5\x07{{?'
p279
tp280
Rp281
ag5
(g9
S'\xcf\xf7S\xf7\xf86{?'
p282
tp283
Rp284
ag5
(g9
S'm\xe7\xfb\xf1_\\{?'
p285
tp286
Rp287
ag5
(g9
S'Zd;G\xa9\x01{?'
p288
tp289
Rp290
ag5
(g9
S'\xa2E\xb6\xef\xbd\x10{?'
p291
tp292
Rp293
ag5
(g9
S'\x83\xc0\xca\tW\x9cz?'
p294
tp295
Rp296
ag5
(g9
S'R\xb8\x1e5\x14xz?'
p297
tp298
Rp299
ag5
(g9
S'\xd7\xa3p\x15\xf7\xb4z?'
p300
tp301
Rp302
ag5
(g9
S'\xb8\x1e\x85{!mz?'
p303
tp304
Rp305
ag5
(g9
S'L7\x89\xb1\xd1Gy?'
p306
tp307
Rp308
ag5
(g9
S'T\xe3\xa5W\x0c\xb6y?'
p309
tp310
Rp311
ag5
(g9
S'\x7fj\xbc\x00]\xd4y?'
p312
tp313
Rp314
ag5
(g9
S'\xd7\xa3p\xf5\xb5\xc4y?'
p315
tp316
Rp317
ag5
(g9
S'\xe5\xd0"\xef\x1d\x87y?'
p318
tp319
Rp320
ag5
(g9
S'\xc5 \xb0\nP6y?'
p321
tp322
Rp323
ag5
(g9
S'\x9a\x99\x99\x19\xb4\x1cy?'
p324
tp325
Rp326
ag5
(g9
S'R\xb8\x1e]\xbc;y?'
p327
tp328
Rp329
ag5
(g9
S'h\x91\xed<\xb5\xd8x?'
p330
tp331
Rp332
ag5
(g9
S'\xc7K7\x89\x88Rx?'
p333
tp334
Rp335
ag5
(g9
S'Zd;#\xe9\x9cx?'
p336
tp337
Rp338
ag5
(g9
S'\xd1"\xdbMT,x?'
p339
tp340
Rp341
ag5
(g9
S'\x9e\xef\xa7\xc6J,x?'
p342
tp343
Rp344
ag5
(g9
S'\x0e-\xb2\xa9\xf0\x05x?'
p345
tp346
Rp347
ag5
(g9
S'\xf8S\xe3\x1d\xcb\xcaw?'
p348
tp349
Rp350
ag5
(g9
S'q=\n\x9b\x14\xf1w?'
p351
tp352
Rp353
ag5
(g9
S'sh\x91\x85\xa4\xafw?'
p354
tp355
Rp356
ag5
(g9
S'\x10X9\xcc\x98\xdbw?'
p357
tp358
Rp359
ag5
(g9
S"\x1f\x85\xeb)'\x9fw?"
p360
tp361
Rp362
ag5
(g9
S'\x93\x18\x04\xa62\x92w?'
p363
tp364
Rp365
ag5
(g9
S'\x17\xd9\xce#\x10\x15x?'
p366
tp367
Rp368
ag5
(g9
S'-\xb2\x9d\xa3\x829x?'
p369
tp370
Rp371
ag5
(g9
S'\xa8\xc6K\xffR\x97w?'
p372
tp373
Rp374
ag5
(g9
S'\x1b/\xdd\xb4\x98\rx?'
p375
tp376
Rp377
ag5
(g9
S'\x17\xd9\xce\xe3:\x96w?'
p378
tp379
Rp380
ag5
(g9
S'\xa6\x9b\xc4\xe8\x9d\xe8w?'
p381
tp382
Rp383
ag5
(g9
S'Zd;\xa7Z\x9ew?'
p384
tp385
Rp386
ag5
(g9
S'333_!\x90w?'
p387
tp388
Rp389
ag5
(g9
S'\xc7K7-\x8d\x01x?'
p390
tp391
Rp392
ag5
(g9
S'\x85\xebQt\xf92x?'
p393
tp394
Rp395
ag5
(g9
S'H\xe1z0;\xebw?'
p396
tp397
Rp398
ag5
(g9
S'F\xb6\xf3\xdd\x8f\xb7w?'
p399
tp400
Rp401
ag5
(g9
S'\x96C\x8b\xf0Y\x04x?'
p402
tp403
Rp404
ag5
(g9
S'\xecQ\xb8\x06\xa7\xfew?'
p405
tp406
Rp407
ag5
(g9
S'\x8bl\xe7\x83\x8d:w?'
p408
tp409
Rp410
ag5
(g9
S'\x19\x04VJt\x7fw?'
p411
tp412
Rp413
ag5
(g9
S'X9\xb4pn]w?'
p414
tp415
Rp416
ag5
(g9
S'\x96C\x8b(\x7fuw?'
p417
tp418
Rp419
ag5
(g9
S'R\xb8\x1e1ukw?'
p420
tp421
Rp422
ag5
(g9
S'9\xb4\xc8\x9e3\x86w?'
p423
tp424
Rp425
ag5
(g9
S'7\x89A\xbcK]w?'
p426
tp427
Rp428
ag5
(g9
S'\xa2E\xb6\xfb\xe3\x90w?'
p429
tp430
Rp431
ag5
(g9
S'\xcf\xf7Sc\x98\x9fw?'
p432
tp433
Rp434
ag5
(g9
S'\xc5 \xb0\x06\x85(w?'
p435
tp436
Rp437
ag5
(g9
S'\xc5 \xb0\xf6\xd3\x10w?'
p438
tp439
Rp440
ag5
(g9
S';\xdfO\xe9C\xf0w?'
p441
tp442
Rp443
ag5
(g9
S'\xdfO\x8dsUpw?'
p444
tp445
Rp446
ag5
(g9
S'\xd9\xce\xf7\xaf\x96\xa6w?'
p447
tp448
Rp449
ag5
(g9
S'\x1b/\xdd\xb8\xbb\x81w?'
p450
tp451
Rp452
ag5
(g9
S'\x1dZd\xab\xcc|w?'
p453
tp454
Rp455
ag5
(g9
S'\xb6\xf3\xfdDH\x17x?'
p456
tp457
Rp458
ag5
(g9
S'\xe9&1\xa4\x10\xd6w?'
p459
tp460
Rp461
aas.